EXPORTS
 "R_init_eegCA"
 "_Z13get_last_callv"
 "_Z19string_to_try_errorRKNSt7__cxx1112basic_stringIcSt11char_traitsIcESaIcEEE"
 "_Z31exception_to_condition_templateIN4Rcpp9exceptionEEP7SEXPRECRKT_b"
 "_Z31exception_to_condition_templateISt9exceptionEP7SEXPRECRKT_b"
 "_ZGVN4arma5DatumIdE3nanE"
 "_ZGVZ20rcpp_get_stack_tracevE3fun"
 "_ZGVZ20rcpp_set_stack_traceP7SEXPRECE3fun"
 "_ZGVZ7dataptrP7SEXPRECE3fun"
 "_ZGVZ8demangleRKNSt7__cxx1112basic_stringIcSt11char_traitsIcESaIcEEEE3funB5cxx11"
 "_ZGVZN4Rcpp20Rcpp_precious_removeEP7SEXPRECE3fun"
 "_ZGVZN4Rcpp22Rcpp_precious_preserveEP7SEXPRECE3fun"
 "_ZGVZN4Rcpp8internal12exitRNGScopeEvE3fun"
 "_ZGVZN4Rcpp8internal13enterRNGScopeEvE3fun"
 "_ZN10tinyformat6detail10formatImplERSoPKcPKNS0_9FormatArgEi"
 "_ZN10tinyformat6detail15formatTruncatedIiEEvRSoRKT_i"
 "_ZN10tinyformat6detail21streamStateFromFormatERSoRbRiPKcPKNS0_9FormatArgES3_i"
 "_ZN10tinyformat6detail9FormatArg10formatImplIPKcEEvRSoS4_S4_iPKv"
 "_ZN10tinyformat6detail9FormatArg10formatImplIiEEvRSoPKcS5_iPKv"
 "_ZN10tinyformat6detail9FormatArg9toIntImplIPKcEEiPKv"
 "_ZN10tinyformat6detail9FormatArg9toIntImplIiEEiPKv"
 "_ZN10tinyformat6formatIJEEENSt7__cxx1112basic_stringIcSt11char_traitsIcESaIcEEEPKcDpRKT_"
 "_ZN10tinyformat6formatIJPKcEEENSt7__cxx1112basic_stringIcSt11char_traitsIcESaIcEEES2_DpRKT_"
 "_ZN10tinyformat6formatIJPKcS2_EEENSt7__cxx1112basic_stringIcSt11char_traitsIcESaIcEEES2_DpRKT_"
 "_ZN10tinyformat6formatIJiEEENSt7__cxx1112basic_stringIcSt11char_traitsIcESaIcEEEPKcDpRKT_"
 "_ZN4Rcpp10RstreambufILb0EE4syncEv"
 "_ZN4Rcpp10RstreambufILb0EE6xsputnEPKcx"
 "_ZN4Rcpp10RstreambufILb0EE8overflowEi"
 "_ZN4Rcpp10RstreambufILb0EED0Ev"
 "_ZN4Rcpp10RstreambufILb0EED1Ev"
 "_ZN4Rcpp10RstreambufILb1EE4syncEv"
 "_ZN4Rcpp10RstreambufILb1EE6xsputnEPKcx"
 "_ZN4Rcpp10RstreambufILb1EE8overflowEi"
 "_ZN4Rcpp10RstreambufILb1EED0Ev"
 "_ZN4Rcpp10RstreambufILb1EED1Ev"
 "_ZN4Rcpp10eval_errorD0Ev"
 "_ZN4Rcpp10eval_errorD1Ev"
 "_ZN4Rcpp12RObject_ImplINS_15PreserveStorageEEaSIP7SEXPRECEERS2_RKT_"
 "_ZN4Rcpp12not_a_matrixD0Ev"
 "_ZN4Rcpp12not_a_matrixD1Ev"
 "_ZN4Rcpp13RcppArmadillo9arma_wrapIN4arma3MatIdEEEEP7SEXPRECRKT_RKNS_9DimensionE"
 "_ZN4Rcpp14not_compatibleC1IJPKcS3_EEES3_DpOT_"
 "_ZN4Rcpp14not_compatibleC1IJiEEEPKcDpOT_"
 "_ZN4Rcpp14not_compatibleD0Ev"
 "_ZN4Rcpp14not_compatibleD1Ev"
 "_ZN4Rcpp20Rcpp_precious_removeEP7SEXPREC"
 "_ZN4Rcpp22ArmaMat_InputParameterIdN4arma3MatIdEERS3_NS_6traits17integral_constantIbLb0EEEED2Ev"
 "_ZN4Rcpp4stopERKNSt7__cxx1112basic_stringIcSt11char_traitsIcESaIcEEE"
 "_ZN4Rcpp4stopIJEEEvPKcDpOT_"
 "_ZN4Rcpp4wrapIdEEP7SEXPRECRKN4arma3MatIT_EE"
 "_ZN4Rcpp6r_castILi14EEEP7SEXPRECS2_"
 "_ZN4Rcpp6traits14MatrixExporterIN4arma3MatIdEEdE3getEv"
 "_ZN4Rcpp8RostreamILb0EED0Ev"
 "_ZN4Rcpp8RostreamILb0EED1Ev"
 "_ZN4Rcpp8RostreamILb1EED0Ev"
 "_ZN4Rcpp8RostreamILb1EED1Ev"
 "_ZN4Rcpp8internal10basic_castILi10EEEP7SEXPRECS3_"
 "_ZN4Rcpp8internal10basic_castILi13EEEP7SEXPRECS3_"
 "_ZN4Rcpp8internal10basic_castILi14EEEP7SEXPRECS3_"
 "_ZN4Rcpp8internal10resumeJumpEP7SEXPREC"
 "_ZN4Rcpp8internal12exitRNGScopeEv"
 "_ZN4Rcpp8internal12primitive_asIbEET_P7SEXPREC"
 "_ZN4Rcpp8internal12primitive_asIdEET_P7SEXPREC"
 "_ZN4Rcpp8internal12primitive_asIfEET_P7SEXPREC"
 "_ZN4Rcpp8internal12primitive_asIiEET_P7SEXPREC"
 "_ZN4Rcpp8internal21export_indexing__implIN4arma3ColIdEEdEEvP7SEXPRECRT_NS_6traits17integral_constantIbLb0EEE"
 "_ZN4Rcpp8internal21export_indexing__implIN4arma3MatIdEEdEEvP7SEXPRECRT_NS_6traits17integral_constantIbLb0EEE"
 "_ZN4Rcpp8internal3nthEP7SEXPRECi"
 "_ZN4Rcpp9Rcpp_evalEP7SEXPRECS1_"
 "_ZN4Rcpp9exceptionD0Ev"
 "_ZN4Rcpp9exceptionD1Ev"
 "_ZN4arma5DatumIdE3nanE"
 "_ZNK4Rcpp10eval_error4whatEv"
 "_ZNK4Rcpp12not_a_matrix4whatEv"
 "_ZNK4Rcpp14not_compatible4whatEv"
 "_ZNK4Rcpp9exception21copy_stack_trace_to_rEv"
 "_ZNK4Rcpp9exception4whatEv"
 "_ZNKSt5ctypeIcE8do_widenEc"
 "_ZNSt7__cxx1112basic_stringIcSt11char_traitsIcESaIcEE12_M_constructIPKcEEvT_S8_St20forward_iterator_tag"
 "_ZNSt7__cxx1112basic_stringIcSt11char_traitsIcESaIcEE12_M_constructIPcEEvT_S7_St20forward_iterator_tag"
 "_ZNSt7__cxx1115basic_stringbufIcSt11char_traitsIcESaIcEED1Ev"
 "_ZTCN4Rcpp8RostreamILb0EEE0_So"
 "_ZTCN4Rcpp8RostreamILb1EEE0_So"
 "_ZTIN4Rcpp10RstreambufILb0EEE"
 "_ZTIN4Rcpp10RstreambufILb1EEE"
 "_ZTIN4Rcpp10eval_errorE"
 "_ZTIN4Rcpp12not_a_matrixE"
 "_ZTIN4Rcpp14not_compatibleE"
 "_ZTIN4Rcpp17LongjumpExceptionE"
 "_ZTIN4Rcpp8RostreamILb0EEE"
 "_ZTIN4Rcpp8RostreamILb1EEE"
 "_ZTIN4Rcpp8internal20InterruptedExceptionE"
 "_ZTIN4Rcpp9exceptionE"
 "_ZTISt11logic_error"
 "_ZTISt9bad_alloc"
 "_ZTISt9exception"
 "_ZTSN4Rcpp10RstreambufILb0EEE"
 "_ZTSN4Rcpp10RstreambufILb1EEE"
 "_ZTSN4Rcpp10eval_errorE"
 "_ZTSN4Rcpp12not_a_matrixE"
 "_ZTSN4Rcpp14not_compatibleE"
 "_ZTSN4Rcpp17LongjumpExceptionE"
 "_ZTSN4Rcpp8RostreamILb0EEE"
 "_ZTSN4Rcpp8RostreamILb1EEE"
 "_ZTSN4Rcpp8internal20InterruptedExceptionE"
 "_ZTSN4Rcpp9exceptionE"
 "_ZTSSt11logic_error"
 "_ZTSSt9bad_alloc"
 "_ZTSSt9exception"
 "_ZTTN4Rcpp8RostreamILb0EEE"
 "_ZTTN4Rcpp8RostreamILb1EEE"
 "_ZTVN4Rcpp10RstreambufILb0EEE"
 "_ZTVN4Rcpp10RstreambufILb1EEE"
 "_ZTVN4Rcpp10eval_errorE"
 "_ZTVN4Rcpp12not_a_matrixE"
 "_ZTVN4Rcpp14not_compatibleE"
 "_ZTVN4Rcpp8RostreamILb0EEE"
 "_ZTVN4Rcpp8RostreamILb1EEE"
 "_ZTVN4Rcpp9exceptionE"
 "_ZTv0_n24_N4Rcpp8RostreamILb0EED0Ev"
 "_ZTv0_n24_N4Rcpp8RostreamILb0EED1Ev"
 "_ZTv0_n24_N4Rcpp8RostreamILb1EED0Ev"
 "_ZTv0_n24_N4Rcpp8RostreamILb1EED1Ev"
 "_ZZ20rcpp_get_stack_tracevE3fun"
 "_ZZ20rcpp_set_stack_traceP7SEXPRECE3fun"
 "_ZZ7dataptrP7SEXPRECE3fun"
 "_ZZ8demangleRKNSt7__cxx1112basic_stringIcSt11char_traitsIcESaIcEEEE3funB5cxx11"
 "_ZZN4Rcpp20Rcpp_precious_removeEP7SEXPRECE3fun"
 "_ZZN4Rcpp22Rcpp_precious_preserveEP7SEXPRECE3fun"
 "_ZZN4Rcpp8internal12exitRNGScopeEvE3fun"
 "_ZZN4Rcpp8internal13enterRNGScopeEvE3fun"
 "_ZZN4arma16arma_cerr_streamIcEERSoPSoE11cerr_stream"
 "_eegCA_accu2"
 "_eegCA_betaEigen"
 "_eegCA_betaEigenAggregated"
 "_eegCA_bootLoopAggregated"
 "_eegCA_johansenCpp"
 "_eegCA_johansenCppAggregated"
 "_eegCA_oscillator"
 "_eegCA_penAlphaCpp"
 "_eegCA_penAlphaCppAggregated"
 "_eegCA_penNuclearCpp"
 "_eegCA_penPiCpp"
 "_eegCA_varAggregated"
 "_eegCA_vecm"
 "_eegCA_vecmAggregated"
 "_eegCA_vecmEigen"
 "_eegCA_vecmEigenAggregated"
 "_Z19betaEigenAggregatedN4arma3MatIdEES1_id"
 "_Z9betaEigenN4arma3MatIdEEid"
 "_ZGVN4arma5DatumIdE3nanE"
 "_ZN4Rcpp10RstreambufILb0EE4syncEv"
 "_ZN4Rcpp10RstreambufILb0EE6xsputnEPKcx"
 "_ZN4Rcpp10RstreambufILb0EE8overflowEi"
 "_ZN4Rcpp10RstreambufILb0EED0Ev"
 "_ZN4Rcpp10RstreambufILb0EED1Ev"
 "_ZN4Rcpp10RstreambufILb1EE4syncEv"
 "_ZN4Rcpp10RstreambufILb1EE6xsputnEPKcx"
 "_ZN4Rcpp10RstreambufILb1EE8overflowEi"
 "_ZN4Rcpp10RstreambufILb1EED0Ev"
 "_ZN4Rcpp10RstreambufILb1EED1Ev"
 "_ZN4Rcpp8RostreamILb0EED0Ev"
 "_ZN4Rcpp8RostreamILb0EED1Ev"
 "_ZN4Rcpp8RostreamILb1EED0Ev"
 "_ZN4Rcpp8RostreamILb1EED1Ev"
 "_ZN4arma10glue_times5applyIdLb0ELb0ELb0ENS_3MatIdEES3_EEvRNS2_IT_EERKT3_RKT4_S4_"
 "_ZN4arma13op_sort_index5applyINS_3ColIdEEEEvRNS_3MatIjEERKNS_4mtOpIjT_S0_EE"
 "_ZN4arma13subview_elem1IdNS_4mtOpIjNS_3ColIdEENS_13op_sort_indexEEEE7extractERNS_3MatIdEERKS6_"
 "_ZN4arma13subview_elem2IdNS_4mtOpIjNS_3ColIdEENS_13op_sort_indexEEES5_E7extractERNS_3MatIdEERKS6_"
 "_ZN4arma16gemv_emul_tinysqILb0ELb0ELb0EE5applyIdNS_3MatIdEEEEvPT_RKT0_PKS5_S5_S5_"
 "_ZN4arma16gemv_emul_tinysqILb1ELb0ELb0EE5applyIdNS_3MatIdEEEEvPT_RKT0_PKS5_S5_S5_"
 "_ZN4arma19glue_times_redirectILj4EE5applyINS_2OpINS_3MatIdEENS_6op_invEEES5_S5_S5_EEvRNS4_INT_9elem_typeEEERKNS_4GlueINSC_INSC_IS8_T0_NS_10glue_timesEEET1_SE_EET2_SE_EE"
 "_ZN4arma27glue_times_redirect3_helperILb0EE5applyINS_3MatIdEES4_S4_EEvRNS3_INT_9elem_typeEEERKNS_4GlueINS9_IS5_T0_NS_10glue_timesEEET1_SB_EE"
 "_ZN4arma3MatISt7complexIdEE10soft_resetEv"
 "_ZN4arma3MatISt7complexIdEE5resetEv"
 "_ZN4arma3MatISt7complexIdEE9init_warmEjj"
 "_ZN4arma3MatIdE10soft_resetEv"
 "_ZN4arma3MatIdE5resetEv"
 "_ZN4arma3MatIdE9init_warmEjj"
 "_ZN4arma3MatIdE9steal_memERS1_"
 "_ZN4arma3MatIdEC1ERKS1_"
 "_ZN4arma3MatIjE9init_warmEjj"
 "_ZN4arma5DatumIdE3nanE"
 "_ZN4arma5ProxyINS_4GlueINS1_INS_3MatIdEES3_NS_10glue_timesEEES3_S4_EEED1Ev"
 "_ZN4arma6auxlib15eig_gen_balanceINS_3MatIdEEEEbRNS2_ISt7complexINT_8pod_typeEEEES9_bRKNS_4BaseIS6_S5_EE"
 "_ZN4arma6auxlib7eig_genINS_3MatIdEEEEbRNS2_ISt7complexINT_8pod_typeEEEES9_bRKNS_4BaseIS6_S5_EE"
 "_ZN4arma6op_det10apply_tinyIdEET_RKNS_3MatIS2_EE"
 "_ZN4arma6op_inv12apply_directINS_3MatIdEEEEbRNS2_INT_9elem_typeEEERKNS_4BaseIS5_S4_EEPKc"
 "_ZN4arma6op_inv18apply_tiny_noaliasIdEEbRNS_3MatIT_EERKS4_"
 "_ZN4arma8arrayops10copy_smallIdEEvPT_PKS2_j"
 "_ZN4arma8arrayops17inplace_set_smallIdEEvPT_S2_j"
 "_ZN4arma9op_strans17apply_mat_noaliasIdNS_3MatIdEEEEvRNS2_IT_EERKT0_"
 "_ZN4arma9op_strans24apply_mat_noalias_tinysqIdNS_3MatIdEEEEvRNS2_IT_EERKT0_"
 "_ZSt13__adjust_heapIN9__gnu_cxx17__normal_iteratorIPN4arma22arma_sort_index_packetIdEESt6vectorIS4_SaIS4_EEEExS4_NS0_5__ops15_Iter_comp_iterINS2_29arma_sort_index_helper_ascendIdEEEEEvT_T0_SG_T1_T2_"
 "_ZSt13__adjust_heapIN9__gnu_cxx17__normal_iteratorIPN4arma22arma_sort_index_packetIdEESt6vectorIS4_SaIS4_EEEExS4_NS0_5__ops15_Iter_comp_iterINS2_30arma_sort_index_helper_descendIdEEEEEvT_T0_SG_T1_T2_"
 "_ZSt16__insertion_sortIN9__gnu_cxx17__normal_iteratorIPN4arma22arma_sort_index_packetIdEESt6vectorIS4_SaIS4_EEEENS0_5__ops15_Iter_comp_iterINS2_29arma_sort_index_helper_ascendIdEEEEEvT_SF_T0_"
 "_ZSt16__insertion_sortIN9__gnu_cxx17__normal_iteratorIPN4arma22arma_sort_index_packetIdEESt6vectorIS4_SaIS4_EEEENS0_5__ops15_Iter_comp_iterINS2_30arma_sort_index_helper_descendIdEEEEEvT_SF_T0_"
 "_ZSt16__introsort_loopIN9__gnu_cxx17__normal_iteratorIPN4arma22arma_sort_index_packetIdEESt6vectorIS4_SaIS4_EEEExNS0_5__ops15_Iter_comp_iterINS2_29arma_sort_index_helper_ascendIdEEEEEvT_SF_T0_T1_"
 "_ZSt16__introsort_loopIN9__gnu_cxx17__normal_iteratorIPN4arma22arma_sort_index_packetIdEESt6vectorIS4_SaIS4_EEEExNS0_5__ops15_Iter_comp_iterINS2_30arma_sort_index_helper_descendIdEEEEEvT_SF_T0_T1_"
 "_ZTCN4Rcpp8RostreamILb0EEE0_So"
 "_ZTCN4Rcpp8RostreamILb1EEE0_So"
 "_ZTIN4Rcpp10RstreambufILb0EEE"
 "_ZTIN4Rcpp10RstreambufILb1EEE"
 "_ZTIN4Rcpp8RostreamILb0EEE"
 "_ZTIN4Rcpp8RostreamILb1EEE"
 "_ZTISt11logic_error"
 "_ZTISt12out_of_range"
 "_ZTISt13runtime_error"
 "_ZTISt9bad_alloc"
 "_ZTISt9exception"
 "_ZTSN4Rcpp10RstreambufILb0EEE"
 "_ZTSN4Rcpp10RstreambufILb1EEE"
 "_ZTSN4Rcpp8RostreamILb0EEE"
 "_ZTSN4Rcpp8RostreamILb1EEE"
 "_ZTSSt11logic_error"
 "_ZTSSt12out_of_range"
 "_ZTSSt13runtime_error"
 "_ZTSSt9bad_alloc"
 "_ZTSSt9exception"
 "_ZTTN4Rcpp8RostreamILb0EEE"
 "_ZTTN4Rcpp8RostreamILb1EEE"
 "_ZTVN4Rcpp10RstreambufILb0EEE"
 "_ZTVN4Rcpp10RstreambufILb1EEE"
 "_ZTVN4Rcpp8RostreamILb0EEE"
 "_ZTVN4Rcpp8RostreamILb1EEE"
 "_ZTv0_n24_N4Rcpp8RostreamILb0EED0Ev"
 "_ZTv0_n24_N4Rcpp8RostreamILb0EED1Ev"
 "_ZTv0_n24_N4Rcpp8RostreamILb1EED0Ev"
 "_ZTv0_n24_N4Rcpp8RostreamILb1EED1Ev"
 "_ZZN4arma16arma_cerr_streamIcEERSoPSoE11cerr_stream"
 "_Z18bootLoopAggregatedN4arma3MatIdEES1_iidiiS1_bb"
 "_ZGVN4arma5DatumIdE3nanE"
 "_ZN4Rcpp10RstreambufILb0EE4syncEv"
 "_ZN4Rcpp10RstreambufILb0EE6xsputnEPKcx"
 "_ZN4Rcpp10RstreambufILb0EE8overflowEi"
 "_ZN4Rcpp10RstreambufILb0EED0Ev"
 "_ZN4Rcpp10RstreambufILb0EED1Ev"
 "_ZN4Rcpp10RstreambufILb1EE4syncEv"
 "_ZN4Rcpp10RstreambufILb1EE6xsputnEPKcx"
 "_ZN4Rcpp10RstreambufILb1EE8overflowEi"
 "_ZN4Rcpp10RstreambufILb1EED0Ev"
 "_ZN4Rcpp10RstreambufILb1EED1Ev"
 "_ZN4Rcpp8RostreamILb0EED0Ev"
 "_ZN4Rcpp8RostreamILb0EED1Ev"
 "_ZN4Rcpp8RostreamILb1EED0Ev"
 "_ZN4Rcpp8RostreamILb1EED1Ev"
 "_ZN4arma10eglue_coreINS_11eglue_schurEE5applyINS_3MatIdEENS_5eGlueIS5_NS_2OpINS7_IS5_NS_7op_meanEEENS_9op_repmatEEENS_11eglue_minusEEENS_3GenIS5_NS_9gen_randnEEEEEvRT_RKNS6_IT0_T1_S1_EE"
 "_ZN4arma10glue_times5applyIdLb0ELb0ELb0ENS_3MatIdEENS_3ColIdEEEEvRNS2_IT_EERKT3_RKT4_S6_"
 "_ZN4arma10glue_times5applyIdLb1ELb0ELb0ENS_3MatIdEES3_EEvRNS2_IT_EERKT3_RKT4_S4_"
 "_ZN4arma14glue_join_rows5applyINS_3MatIdEES3_EEvRNS2_INT_9elem_typeEEERKNS_4GlueIS4_T0_S0_EE"
 "_ZN4arma16gemv_emul_tinysqILb0ELb0ELb0EE5applyIdNS_3MatIdEEEEvPT_RKT0_PKS5_S5_S5_"
 "_ZN4arma16gemv_emul_tinysqILb1ELb0ELb0EE5applyIdNS_3ColIdEEEEvPT_RKT0_PKS5_S5_S5_"
 "_ZN4arma16gemv_emul_tinysqILb1ELb0ELb0EE5applyIdNS_3MatIdEEEEvPT_RKT0_PKS5_S5_S5_"
 "_ZN4arma27glue_times_redirect2_helperILb0EE5applyINS_2OpINS3_INS_3MatIdEENS_7op_cholEEENS_9op_htransEEENS_11subview_colIdEEEEvRNS4_INT_9elem_typeEEERKNS_4GlueISC_T0_NS_10glue_timesEEE"
 "_ZN4arma3MatIdE5resetEv"
 "_ZN4arma3MatIdE9init_coldEv"
 "_ZN4arma3MatIdE9init_warmEjj"
 "_ZN4arma3MatIdE9steal_memERS1_"
 "_ZN4arma3MatIdEC1ERKS1_"
 "_ZN4arma3MatIdEaSERKNS_7subviewIdEE"
 "_ZN4arma5DatumIdE3nanE"
 "_ZN4arma7op_mean20apply_noalias_unwrapINS_3MatIdEEEEvRNS2_INT_9elem_typeEEERKNS_5ProxyIS4_EEj"
 "_ZN4arma7subviewIdE10inplace_opINS_15op_internal_equENS_2OpINS_11subview_rowIdEENS_9op_htransEEEEEvRKNS_4BaseIdT0_EEPKc"
 "_ZN4arma7subviewIdE10inplace_opINS_15op_internal_equENS_3MatIdEEEEvRKNS_4BaseIdT0_EEPKc"
 "_ZN4arma7subviewIdE10inplace_opINS_15op_internal_equENS_5eGlueINS4_INS_11subview_colIdEENS_3eOpINS4_INS_4GlueINS_3MatIdEES6_NS_10glue_timesEEESA_NS_10eglue_plusEEENS_16eop_scalar_timesEEESD_EENS8_INS_2OpINSI_ISA_NS_7op_cholEEENS_9op_htransEEES6_SB_EESD_EEEEvRKNS_4BaseIdT0_EEPKc"
 "_ZN4arma7subviewIdE7extractERNS_3MatIdEERKS1_"
 "_ZN4arma8arrayops10copy_smallIdEEvPT_PKS2_j"
 "_ZN4arma8eop_coreINS_19eop_scalar_div_postEE5applyINS_3MatIdEENS_5eGlueIS5_NS_2OpIS5_NS_9op_htransEEENS_10eglue_plusEEEEEvRT_RKNS_3eOpIT0_S1_EE"
 "_ZN4arma9op_strans17apply_mat_inplaceIdEEvRNS_3MatIT_EE"
 "_ZN4arma9op_strans17apply_mat_noaliasIdNS_3MatIdEEEEvRNS2_IT_EERKT0_"
 "_ZN4arma9op_strans24apply_mat_noalias_tinysqIdNS_3MatIdEEEEvRNS2_IT_EERKT0_"
 "_ZTCN4Rcpp8RostreamILb0EEE0_So"
 "_ZTCN4Rcpp8RostreamILb1EEE0_So"
 "_ZTIN4Rcpp10RstreambufILb0EEE"
 "_ZTIN4Rcpp10RstreambufILb1EEE"
 "_ZTIN4Rcpp8RostreamILb0EEE"
 "_ZTIN4Rcpp8RostreamILb1EEE"
 "_ZTISt11logic_error"
 "_ZTISt12out_of_range"
 "_ZTISt13runtime_error"
 "_ZTISt9bad_alloc"
 "_ZTISt9exception"
 "_ZTSN4Rcpp10RstreambufILb0EEE"
 "_ZTSN4Rcpp10RstreambufILb1EEE"
 "_ZTSN4Rcpp8RostreamILb0EEE"
 "_ZTSN4Rcpp8RostreamILb1EEE"
 "_ZTSSt11logic_error"
 "_ZTSSt12out_of_range"
 "_ZTSSt13runtime_error"
 "_ZTSSt9bad_alloc"
 "_ZTSSt9exception"
 "_ZTTN4Rcpp8RostreamILb0EEE"
 "_ZTTN4Rcpp8RostreamILb1EEE"
 "_ZTVN4Rcpp10RstreambufILb0EEE"
 "_ZTVN4Rcpp10RstreambufILb1EEE"
 "_ZTVN4Rcpp8RostreamILb0EEE"
 "_ZTVN4Rcpp8RostreamILb1EEE"
 "_ZTv0_n24_N4Rcpp8RostreamILb0EED0Ev"
 "_ZTv0_n24_N4Rcpp8RostreamILb0EED1Ev"
 "_ZTv0_n24_N4Rcpp8RostreamILb1EED0Ev"
 "_ZTv0_n24_N4Rcpp8RostreamILb1EED1Ev"
 "_ZZN4arma16arma_cerr_streamIcEERSoPSoE11cerr_stream"
 "_Z1fN4arma3ColIdEES1_NS_3MatIdEES3_S1_"
 "_ZGVN4arma5DatumIdE3nanE"
 "_ZN4Rcpp10RstreambufILb0EE4syncEv"
 "_ZN4Rcpp10RstreambufILb0EE6xsputnEPKcx"
 "_ZN4Rcpp10RstreambufILb0EE8overflowEi"
 "_ZN4Rcpp10RstreambufILb0EED0Ev"
 "_ZN4Rcpp10RstreambufILb0EED1Ev"
 "_ZN4Rcpp10RstreambufILb1EE4syncEv"
 "_ZN4Rcpp10RstreambufILb1EE6xsputnEPKcx"
 "_ZN4Rcpp10RstreambufILb1EE8overflowEi"
 "_ZN4Rcpp10RstreambufILb1EED0Ev"
 "_ZN4Rcpp10RstreambufILb1EED1Ev"
 "_ZN4Rcpp8RostreamILb0EED0Ev"
 "_ZN4Rcpp8RostreamILb0EED1Ev"
 "_ZN4Rcpp8RostreamILb1EED0Ev"
 "_ZN4Rcpp8RostreamILb1EED1Ev"
 "_ZN4arma10glue_times5applyIdLb0ELb1ELb0ELb0ENS_3MatIdEES3_S3_EEvRNS2_IT_EERKT4_RKT5_RKT6_S4_"
 "_ZN4arma16gemm_emul_tinysqILb0ELb0ELb0EE5applyIdNS_3MatIdEES4_EEvRNS3_IT_EERKT0_RKT1_S5_S5_"
 "_ZN4arma16gemv_emul_tinysqILb0ELb0ELb0EE5applyIdNS_3MatIdEEEEvPT_RKT0_PKS5_S5_S5_"
 "_ZN4arma16gemv_emul_tinysqILb1ELb0ELb0EE5applyIdNS_3MatIdEEEEvPT_RKT0_PKS5_S5_S5_"
 "_ZN4arma3MatIdE9init_warmEjj"
 "_ZN4arma5DatumIdE3nanE"
 "_ZN4arma8arrayops10copy_smallIdEEvPT_PKS2_j"
 "_ZN4arma9op_strans24apply_mat_noalias_tinysqIdNS_3MatIdEEEEvRNS2_IT_EERKT0_"
 "_ZTCN4Rcpp8RostreamILb0EEE0_So"
 "_ZTCN4Rcpp8RostreamILb1EEE0_So"
 "_ZTIN4Rcpp10RstreambufILb0EEE"
 "_ZTIN4Rcpp10RstreambufILb1EEE"
 "_ZTIN4Rcpp8RostreamILb0EEE"
 "_ZTIN4Rcpp8RostreamILb1EEE"
 "_ZTISt11logic_error"
 "_ZTISt12out_of_range"
 "_ZTISt13runtime_error"
 "_ZTISt9bad_alloc"
 "_ZTISt9exception"
 "_ZTSN4Rcpp10RstreambufILb0EEE"
 "_ZTSN4Rcpp10RstreambufILb1EEE"
 "_ZTSN4Rcpp8RostreamILb0EEE"
 "_ZTSN4Rcpp8RostreamILb1EEE"
 "_ZTSSt11logic_error"
 "_ZTSSt12out_of_range"
 "_ZTSSt13runtime_error"
 "_ZTSSt9bad_alloc"
 "_ZTSSt9exception"
 "_ZTTN4Rcpp8RostreamILb0EEE"
 "_ZTTN4Rcpp8RostreamILb1EEE"
 "_ZTVN4Rcpp10RstreambufILb0EEE"
 "_ZTVN4Rcpp10RstreambufILb1EEE"
 "_ZTVN4Rcpp8RostreamILb0EEE"
 "_ZTVN4Rcpp8RostreamILb1EEE"
 "_ZTv0_n24_N4Rcpp8RostreamILb0EED0Ev"
 "_ZTv0_n24_N4Rcpp8RostreamILb0EED1Ev"
 "_ZTv0_n24_N4Rcpp8RostreamILb1EED0Ev"
 "_ZTv0_n24_N4Rcpp8RostreamILb1EED1Ev"
 "_ZZN4arma16arma_cerr_streamIcEERSoPSoE11cerr_stream"
 "_Z1gN4arma3ColIdEES1_PKc"
 "_ZGVN4arma5DatumIdE3nanE"
 "_ZN4Rcpp10RstreambufILb0EE4syncEv"
 "_ZN4Rcpp10RstreambufILb0EE6xsputnEPKcx"
 "_ZN4Rcpp10RstreambufILb0EE8overflowEi"
 "_ZN4Rcpp10RstreambufILb0EED0Ev"
 "_ZN4Rcpp10RstreambufILb0EED1Ev"
 "_ZN4Rcpp10RstreambufILb1EE4syncEv"
 "_ZN4Rcpp10RstreambufILb1EE6xsputnEPKcx"
 "_ZN4Rcpp10RstreambufILb1EE8overflowEi"
 "_ZN4Rcpp10RstreambufILb1EED0Ev"
 "_ZN4Rcpp10RstreambufILb1EED1Ev"
 "_ZN4Rcpp8RostreamILb0EED0Ev"
 "_ZN4Rcpp8RostreamILb0EED1Ev"
 "_ZN4Rcpp8RostreamILb1EED0Ev"
 "_ZN4Rcpp8RostreamILb1EED1Ev"
 "_ZN4arma5DatumIdE3nanE"
 "_ZTCN4Rcpp8RostreamILb0EEE0_So"
 "_ZTCN4Rcpp8RostreamILb1EEE0_So"
 "_ZTIN4Rcpp10RstreambufILb0EEE"
 "_ZTIN4Rcpp10RstreambufILb1EEE"
 "_ZTIN4Rcpp8RostreamILb0EEE"
 "_ZTIN4Rcpp8RostreamILb1EEE"
 "_ZTISt11logic_error"
 "_ZTISt12out_of_range"
 "_ZTISt9bad_alloc"
 "_ZTISt9exception"
 "_ZTSN4Rcpp10RstreambufILb0EEE"
 "_ZTSN4Rcpp10RstreambufILb1EEE"
 "_ZTSN4Rcpp8RostreamILb0EEE"
 "_ZTSN4Rcpp8RostreamILb1EEE"
 "_ZTSSt11logic_error"
 "_ZTSSt12out_of_range"
 "_ZTSSt9bad_alloc"
 "_ZTSSt9exception"
 "_ZTTN4Rcpp8RostreamILb0EEE"
 "_ZTTN4Rcpp8RostreamILb1EEE"
 "_ZTVN4Rcpp10RstreambufILb0EEE"
 "_ZTVN4Rcpp10RstreambufILb1EEE"
 "_ZTVN4Rcpp8RostreamILb0EEE"
 "_ZTVN4Rcpp8RostreamILb1EEE"
 "_ZTv0_n24_N4Rcpp8RostreamILb0EED0Ev"
 "_ZTv0_n24_N4Rcpp8RostreamILb0EED1Ev"
 "_ZTv0_n24_N4Rcpp8RostreamILb1EED0Ev"
 "_ZTv0_n24_N4Rcpp8RostreamILb1EED1Ev"
 "_ZZN4arma16arma_cerr_streamIcEERSoPSoE11cerr_stream"
 "_Z1MN4arma3MatIdEES1_"
 "_Z1SN4arma3MatIdEES1_"
 "_Z5M_barN4arma3MatIdEE"
 "_Z6M_perpN4arma3MatIdEE"
 "_ZGVN4arma5DatumIdE3nanE"
 "_ZN4Rcpp10RstreambufILb0EE4syncEv"
 "_ZN4Rcpp10RstreambufILb0EE6xsputnEPKcx"
 "_ZN4Rcpp10RstreambufILb0EE8overflowEi"
 "_ZN4Rcpp10RstreambufILb0EED0Ev"
 "_ZN4Rcpp10RstreambufILb0EED1Ev"
 "_ZN4Rcpp10RstreambufILb1EE4syncEv"
 "_ZN4Rcpp10RstreambufILb1EE6xsputnEPKcx"
 "_ZN4Rcpp10RstreambufILb1EE8overflowEi"
 "_ZN4Rcpp10RstreambufILb1EED0Ev"
 "_ZN4Rcpp10RstreambufILb1EED1Ev"
 "_ZN4Rcpp8RostreamILb0EED0Ev"
 "_ZN4Rcpp8RostreamILb0EED1Ev"
 "_ZN4Rcpp8RostreamILb1EED0Ev"
 "_ZN4Rcpp8RostreamILb1EED1Ev"
 "_ZN4arma10glue_times5applyIdLb1ELb0ELb0ENS_3MatIdEES3_EEvRNS2_IT_EERKT3_RKT4_S4_"
 "_ZN4arma16gemm_emul_tinysqILb0ELb0ELb0EE5applyIdNS_3ColIdEENS_3MatIdEEEEvRNS5_IT_EERKT0_RKT1_S7_S7_"
 "_ZN4arma16gemv_emul_tinysqILb0ELb0ELb0EE5applyIdNS_3ColIdEEEEvPT_RKT0_PKS5_S5_S5_"
 "_ZN4arma16gemv_emul_tinysqILb0ELb0ELb0EE5applyIdNS_3MatIdEEEEvPT_RKT0_PKS5_S5_S5_"
 "_ZN4arma16gemv_emul_tinysqILb0ELb0ELb1EE5applyIdNS_3ColIdEEEEvPT_RKT0_PKS5_S5_S5_"
 "_ZN4arma16gemv_emul_tinysqILb1ELb0ELb0EE5applyIdNS_3MatIdEEEEvPT_RKT0_PKS5_S5_S5_"
 "_ZN4arma3MatIdE10soft_resetEv"
 "_ZN4arma3MatIdE5resetEv"
 "_ZN4arma3MatIdE9init_coldEv"
 "_ZN4arma3MatIdE9init_warmEjj"
 "_ZN4arma5DatumIdE3nanE"
 "_ZN4arma6op_det10apply_tinyIdEET_RKNS_3MatIS2_EE"
 "_ZN4arma6op_inv12apply_directINS_4GlueINS_2OpINS_3MatIdEENS_9op_htransEEES5_NS_10glue_timesEEEEEbRNS4_INT_9elem_typeEEERKNS_4BaseISB_SA_EEPKc"
 "_ZN4arma6op_inv18apply_tiny_noaliasIdEEbRNS_3MatIT_EERKS4_"
 "_ZN4arma8arrayops10copy_smallIdEEvPT_PKS2_j"
 "_ZN4arma9op_strans24apply_mat_noalias_tinysqIdNS_3ColIdEEEEvRNS_3MatIT_EERKT0_"
 "_ZTCN4Rcpp8RostreamILb0EEE0_So"
 "_ZTCN4Rcpp8RostreamILb1EEE0_So"
 "_ZTIN4Rcpp10RstreambufILb0EEE"
 "_ZTIN4Rcpp10RstreambufILb1EEE"
 "_ZTIN4Rcpp8RostreamILb0EEE"
 "_ZTIN4Rcpp8RostreamILb1EEE"
 "_ZTISt11logic_error"
 "_ZTISt12out_of_range"
 "_ZTISt13runtime_error"
 "_ZTISt9bad_alloc"
 "_ZTISt9exception"
 "_ZTSN4Rcpp10RstreambufILb0EEE"
 "_ZTSN4Rcpp10RstreambufILb1EEE"
 "_ZTSN4Rcpp8RostreamILb0EEE"
 "_ZTSN4Rcpp8RostreamILb1EEE"
 "_ZTSSt11logic_error"
 "_ZTSSt12out_of_range"
 "_ZTSSt13runtime_error"
 "_ZTSSt9bad_alloc"
 "_ZTSSt9exception"
 "_ZTTN4Rcpp8RostreamILb0EEE"
 "_ZTTN4Rcpp8RostreamILb1EEE"
 "_ZTVN4Rcpp10RstreambufILb0EEE"
 "_ZTVN4Rcpp10RstreambufILb1EEE"
 "_ZTVN4Rcpp8RostreamILb0EEE"
 "_ZTVN4Rcpp8RostreamILb1EEE"
 "_ZTv0_n24_N4Rcpp8RostreamILb0EED0Ev"
 "_ZTv0_n24_N4Rcpp8RostreamILb0EED1Ev"
 "_ZTv0_n24_N4Rcpp8RostreamILb1EED0Ev"
 "_ZTv0_n24_N4Rcpp8RostreamILb1EED1Ev"
 "_ZZN4arma16arma_cerr_streamIcEERSoPSoE11cerr_stream"
 "_Z11johansenCppN4arma3MatIdEEiS1_S1_db"
 "_Z13varAggregatedN4arma3MatIdEES1_dbb"
 "_Z14vecmAggregatedN4arma3MatIdEES1_iS1_S1_dbb"
 "_Z19vecmEigenAggregatedN4arma3MatIdEES1_"
 "_Z21johansenCppAggregatedN4arma3MatIdEES1_iS1_S1_dbb"
 "_Z3varN4arma3MatIdEEdb"
 "_Z4vecmN4arma3MatIdEEiS1_S1_db"
 "_Z9vecmEigenN4arma3MatIdEE"
 "_ZGVN4arma5DatumIdE3nanE"
 "_ZN4Rcpp10RstreambufILb0EE4syncEv"
 "_ZN4Rcpp10RstreambufILb0EE6xsputnEPKcx"
 "_ZN4Rcpp10RstreambufILb0EE8overflowEi"
 "_ZN4Rcpp10RstreambufILb0EED0Ev"
 "_ZN4Rcpp10RstreambufILb0EED1Ev"
 "_ZN4Rcpp10RstreambufILb1EE4syncEv"
 "_ZN4Rcpp10RstreambufILb1EE6xsputnEPKcx"
 "_ZN4Rcpp10RstreambufILb1EE8overflowEi"
 "_ZN4Rcpp10RstreambufILb1EED0Ev"
 "_ZN4Rcpp10RstreambufILb1EED1Ev"
 "_ZN4Rcpp8RostreamILb0EED0Ev"
 "_ZN4Rcpp8RostreamILb0EED1Ev"
 "_ZN4Rcpp8RostreamILb1EED0Ev"
 "_ZN4Rcpp8RostreamILb1EED1Ev"
 "_ZN4arma10eglue_coreINS_11eglue_minusEE5applyINS_3MatIdEENS_4GlueIS5_S5_NS_10glue_timesEEENS6_INS6_INS6_IS5_NS_2OpIS5_NS_9op_htransEEES7_EES5_S7_EES5_S7_EEEEvRT_RKNS_5eGlueIT0_T1_S1_EE"
 "_ZN4arma10glue_times18apply_inplace_plusINS_11subview_colIdEENS_2OpIS3_NS_9op_htransEEEEEvRNS_3MatINT_9elem_typeEEERKNS_4GlueIS8_T0_S0_EEi"
 "_ZN4arma10glue_times5applyIdLb0ELb0ELb0ELb0ENS_3MatIdEES3_S3_EEvRNS2_IT_EERKT4_RKT5_RKT6_S4_"
 "_ZN4arma10glue_times5applyIdLb0ELb0ELb0ELb1ELb0ENS_3MatIdEES3_S3_S3_EEvRNS2_IT_EERKT5_RKT6_RKT7_RKT8_S4_"
 "_ZN4arma10glue_times5applyIdLb0ELb0ELb0ENS_3MatIdEENS_3ColIdEEEEvRNS2_IT_EERKT3_RKT4_S6_"
 "_ZN4arma10glue_times5applyIdLb0ELb0ELb0ENS_3MatIdEES3_EEvRNS2_IT_EERKT3_RKT4_S4_"
 "_ZN4arma10glue_times5applyIdLb0ELb1ELb0ELb0ELb0ENS_3MatIdEES3_S3_S3_EEvRNS2_IT_EERKT5_RKT6_RKT7_RKT8_S4_"
 "_ZN4arma10glue_times5applyIdLb0ELb1ELb0ENS_3ColIdEES3_EEvRNS_3MatIT_EERKT3_RKT4_S5_"
 "_ZN4arma10glue_times5applyIdLb0ELb1ELb0ENS_3MatIdEES3_EEvRNS2_IT_EERKT3_RKT4_S4_"
 "_ZN4arma10glue_times5applyIdLb1ELb0ELb0ELb0ENS_3ColIdEENS_3MatIdEES3_EEvRNS4_IT_EERKT4_RKT5_RKT6_S6_"
 "_ZN4arma10glue_times5applyIdLb1ELb0ELb0ENS_3MatIdEES3_EEvRNS2_IT_EERKT3_RKT4_S4_"
 "_ZN4arma11op_sort_vec5applyINS_3ColIdEEEEvRNS_3MatINT_9elem_typeEEERKNS_2OpIS5_S0_EE"
 "_ZN4arma11syrk_helper35inplace_copy_upper_tri_to_lower_triIdEEvRNS_3MatIT_EE"
 "_ZN4arma12sympd_helper18guess_sympd_workerIdEENS_10enable_if2IXsrNS_5is_cxIT_EE2noEbE6resultERKNS_3MatIS4_EE"
 "_ZN4arma13op_cumsum_vec5applyINS_3eOpINS2_INS_13subview_elem1IdNS_4mtOpIjNS_3ColIdEENS_13op_sort_indexEEEEENS_20eop_scalar_minus_preEEENS_7eop_logEEEEEvRNS_3MatINT_9elem_typeEEERKNS_2OpISF_S0_EE"
 "_ZN4arma13op_sort_index5applyINS_3ColIdEEEEvRNS_3MatIjEERKNS_4mtOpIjT_S0_EE"
 "_ZN4arma13subview_elem1IdNS_4mtOpIjNS_3ColIdEENS_13op_sort_indexEEEE7extractERNS_3MatIdEERKS6_"
 "_ZN4arma13subview_elem2IdNS_4mtOpIjNS_3ColIdEENS_13op_sort_indexEEES5_E7extractERNS_3MatIdEERKS6_"
 "_ZN4arma14glue_join_cols13apply_noaliasINS_3MatIdEENS_3GenIS3_NS_9gen_zerosEEEEEvRNS2_INT_9elem_typeEEERKNS_5ProxyIS7_EERKNSB_IT0_EE"
 "_ZN4arma14glue_join_cols5applyINS_3ColIdEENS_3GenINS_3MatIdEENS_9gen_zerosEEEEEvRNS5_INT_9elem_typeEEERKNS_4GlueIS9_T0_S0_EE"
 "_ZN4arma14glue_join_cols5applyINS_3MatIdEENS_2OpIS3_NS_9op_htransEEEEEvRNS2_INT_9elem_typeEEERKNS_4GlueIS7_T0_S0_EE"
 "_ZN4arma14glue_join_cols5applyINS_3MatIdEENS_3GenIS3_NS_9gen_zerosEEEEEvRNS2_INT_9elem_typeEEERKNS_4GlueIS7_T0_S0_EE"
 "_ZN4arma14glue_join_cols5applyINS_3MatIdEES3_EEvRNS2_INT_9elem_typeEEERKNS_4GlueIS4_T0_S0_EE"
 "_ZN4arma14glue_join_cols5applyINS_3eOpINS_2OpINS_3MatIdEENS_9op_htransEEENS_19eop_scalar_div_postEEENS2_IS5_S8_EEEEvRNS4_INT_9elem_typeEEERKNS_4GlueISB_T0_S0_EE"
 "_ZN4arma16gemm_emul_tinysqILb0ELb0ELb0EE5applyIdNS_3MatIdEES4_EEvRNS3_IT_EERKT0_RKT1_S5_S5_"
 "_ZN4arma16gemv_emul_tinysqILb0ELb0ELb0EE5applyIdNS_3ColIdEEEEvPT_RKT0_PKS5_S5_S5_"
 "_ZN4arma16gemv_emul_tinysqILb0ELb0ELb0EE5applyIdNS_3MatIdEEEEvPT_RKT0_PKS5_S5_S5_"
 "_ZN4arma16gemv_emul_tinysqILb0ELb0ELb1EE5applyIdNS_3ColIdEEEEvPT_RKT0_PKS5_S5_S5_"
 "_ZN4arma16gemv_emul_tinysqILb0ELb1ELb1EE5applyIdNS_3ColIdEEEEvPT_RKT0_PKS5_S5_S5_"
 "_ZN4arma16gemv_emul_tinysqILb1ELb0ELb0EE5applyIdNS_3ColIdEEEEvPT_RKT0_PKS5_S5_S5_"
 "_ZN4arma16gemv_emul_tinysqILb1ELb0ELb0EE5applyIdNS_3MatIdEEEEvPT_RKT0_PKS5_S5_S5_"
 "_ZN4arma19Proxy_xtrans_vectorINS_2OpINS_11subview_colIdEENS_9op_htransEEEED2Ev"
 "_ZN4arma19glue_times_redirectILj4EE5applyINS_2OpINS_3MatIdEENS_6op_invEEES5_S5_S5_EEvRNS4_INT_9elem_typeEEERKNS_4GlueINSC_INSC_IS8_T0_NS_10glue_timesEEET1_SE_EET2_SE_EE"
 "_ZN4arma19glue_times_redirectILj4EE5applyINS_3MatIdEENS_2OpIS4_NS_9op_htransEEES4_S4_EEvRNS3_INT_9elem_typeEEERKNS_4GlueINSC_INSC_IS8_T0_NS_10glue_timesEEET1_SE_EET2_SE_EE"
 "_ZN4arma19glue_times_redirectILj5EE5applyINS_4GlueINS3_INS3_INS_2OpINS3_INS3_INS4_INS_3MatIdEENS_9op_htransEEES6_NS_10glue_timesEEES6_S9_EENS_6op_invEEES8_S9_EES6_S9_EES6_S9_EES6_EEvRNS5_INT_9elem_typeEEERKNS3_ISH_T0_S9_EE"
 "_ZN4arma19glue_times_redirectILj5EE5applyINS_4GlueINS3_INS3_INS_3MatIdEENS_2OpIS5_NS_9op_htransEEENS_10glue_timesEEES5_S9_EES5_S9_EES5_EEvRNS4_INT_9elem_typeEEERKNS3_ISD_T0_S9_EE"
 "_ZN4arma19glue_times_redirectILj5EE5applyINS_4GlueINS3_INS3_INS_3MatIdEES5_NS_10glue_timesEEENS_2OpINS3_INS3_INS8_IS5_NS_9op_htransEEES5_S6_EES5_S6_EENS_6op_invEEES6_EESA_S6_EES5_EEvRNS4_INT_9elem_typeEEERKNS3_ISH_T0_S6_EE"
 "_ZN4arma19glue_times_redirectILj6EE5applyINS_4GlueINS3_INS3_INS3_INS_2OpINS3_INS3_INS4_INS_3MatIdEENS_9op_htransEEES6_NS_10glue_timesEEES6_S9_EENS_6op_invEEES8_S9_EES6_S9_EES6_S9_EES6_S9_EES6_EEvRNS5_INT_9elem_typeEEERKNS3_ISI_T0_S9_EE"
 "_ZN4arma19glue_times_redirectILj8EE5applyINS_4GlueINS3_INS3_INS3_INS3_INS3_INS_2OpINS3_INS3_INS4_INS_3MatIdEENS_9op_htransEEES6_NS_10glue_timesEEES6_S9_EENS_6op_invEEES8_S9_EES6_S9_EES6_S9_EES6_S9_EES8_S9_EES6_S9_EES6_EEvRNS5_INT_9elem_typeEEERKNS3_ISK_T0_S9_EE"
 "_ZN4arma27glue_times_redirect2_helperILb0EE5applyINS_3MatIdEENS_11subview_colIdEEEEvRNS3_INT_9elem_typeEEERKNS_4GlueIS7_T0_NS_10glue_timesEEE"
 "_ZN4arma27glue_times_redirect2_helperILb0EE5applyINS_3MatIdEENS_12subview_colsIdEEEEvRNS3_INT_9elem_typeEEERKNS_4GlueIS7_T0_NS_10glue_timesEEE"
 "_ZN4arma27glue_times_redirect2_helperILb0EE5applyINS_3MatIdEENS_2OpINS_4GlueINS5_IS4_NS_9op_htransEEES4_NS_10glue_timesEEENS_6op_invEEEEEvRNS3_INT_9elem_typeEEERKNS6_ISD_T0_S9_EE"
 "_ZN4arma27glue_times_redirect2_helperILb0EE5applyINS_3MatIdEENS_2OpIS4_NS_9op_htransEEEEEvRNS3_INT_9elem_typeEEERKNS_4GlueIS8_T0_NS_10glue_timesEEE"
 "_ZN4arma27glue_times_redirect2_helperILb0EE5applyINS_3MatIdEES4_EEvRNS3_INT_9elem_typeEEERKNS_4GlueIS5_T0_NS_10glue_timesEEE"
 "_ZN4arma27glue_times_redirect3_helperILb0EE5applyINS_2OpINS_11subview_colIdEENS_9op_htransEEENS_4GlueINS8_INS3_INS_3MatIdEES6_EESA_NS_10glue_timesEEESA_SC_EES5_EEvRNS9_INT_9elem_typeEEERKNS8_INS8_ISF_T0_SC_EET1_SC_EE"
 "_ZN4arma27glue_times_redirect3_helperILb0EE5applyINS_2OpINS_3MatIdEENS_9op_htransEEES5_S5_EEvRNS4_INT_9elem_typeEEERKNS_4GlueINSC_IS8_T0_NS_10glue_timesEEET1_SE_EE"
 "_ZN4arma27glue_times_redirect3_helperILb0EE5applyINS_3MatIdEES4_S4_EEvRNS3_INT_9elem_typeEEERKNS_4GlueINS9_IS5_T0_NS_10glue_timesEEET1_SB_EE"
 "_ZN4arma3MatISt7complexIdEE10soft_resetEv"
 "_ZN4arma3MatISt7complexIdEE5resetEv"
 "_ZN4arma3MatISt7complexIdEE9init_warmEjj"
 "_ZN4arma3MatIdE10soft_resetEv"
 "_ZN4arma3MatIdE5resetEv"
 "_ZN4arma3MatIdE9init_coldEv"
 "_ZN4arma3MatIdE9init_warmEjj"
 "_ZN4arma3MatIdE9steal_memERS1_"
 "_ZN4arma3MatIdEC1ERKNS_7subviewIdEE"
 "_ZN4arma3MatIdEC1ERKS1_"
 "_ZN4arma3MatIdEaSEOS1_"
 "_ZN4arma3MatIdEaSIS1_NS_4GlueINS3_INS3_INS3_IS1_S1_NS_10glue_timesEEENS_2OpINS3_INS3_INS6_IS1_NS_9op_htransEEES1_S4_EES1_S4_EENS_6op_invEEES4_EES8_S4_EES1_S4_EENS_11eglue_minusEEERS1_RKNS_5eGlueIT_T0_T1_EE"
 "_ZN4arma3MatIdEaSIS1_NS_4GlueINS3_IS1_S1_NS_10glue_timesEEES1_S4_EENS_11eglue_minusEEERS1_RKNS_5eGlueIT_T0_T1_EE"
 "_ZN4arma3MatIjE9init_warmEjj"
 "_ZN4arma5DatumIdE3nanE"
 "_ZN4arma5ProxyINS_4GlueINS1_INS1_INS1_INS_3MatIdEES3_NS_10glue_timesEEENS_2OpINS1_INS1_INS6_IS3_NS_9op_htransEEES3_S4_EES3_S4_EENS_6op_invEEES4_EES8_S4_EES3_S4_EEED1Ev"
 "_ZN4arma5ProxyINS_4GlueINS1_INS1_INS_3MatIdEENS_2OpIS3_NS_9op_htransEEENS_10glue_timesEEES3_S7_EES3_S7_EEED1Ev"
 "_ZN4arma5ProxyINS_4GlueINS1_INS_3MatIdEES3_NS_10glue_timesEEES3_S4_EEED1Ev"
 "_ZN4arma5ProxyINS_4GlueINS_3MatIdEENS_11subview_colIdEENS_10glue_timesEEEED1Ev"
 "_ZN4arma5ProxyINS_4GlueINS_3MatIdEES3_NS_10glue_timesEEEED1Ev"
 "_ZN4arma6auxlib15eig_gen_balanceINS_3MatIdEEEEbRNS2_ISt7complexINT_8pod_typeEEEES9_bRKNS_4BaseIS6_S5_EE"
 "_ZN4arma6auxlib3invIdEEbRNS_3MatIT_EE"
 "_ZN4arma6auxlib7eig_genINS_3MatIdEEEEbRNS2_ISt7complexINT_8pod_typeEEEES9_bRKNS_4BaseIS6_S5_EE"
 "_ZN4arma6op_det10apply_tinyIdEET_RKNS_3MatIS2_EE"
 "_ZN4arma6op_dot10direct_dotIdEENS_14arma_real_onlyIT_E6resultEjPKS3_S7_"
 "_ZN4arma6op_inv12apply_directINS_3MatIdEEEEbRNS2_INT_9elem_typeEEERKNS_4BaseIS5_S4_EEPKc"
 "_ZN4arma6op_inv12apply_directINS_4GlueINS2_INS_2OpINS_3MatIdEENS_9op_htransEEES5_NS_10glue_timesEEES5_S8_EEEEbRNS4_INT_9elem_typeEEERKNS_4BaseISC_SB_EEPKc"
 "_ZN4arma6op_inv13apply_diagmatINS_3MatIdEEEEbRNS2_INT_9elem_typeEEERKS4_PKc"
 "_ZN4arma6op_inv18apply_tiny_noaliasIdEEbRNS_3MatIT_EERKS4_"
 "_ZN4arma7eig_genINS_3MatIdEEEENS_10enable_if2IXsrNS_22is_supported_blas_typeINT_8pod_typeEEE5valueEbE6resultERNS_3ColISt7complexIS6_EEERNS1_ISC_EERKNS_4BaseINS5_9elem_typeES5_EEPKc"
 "_ZN4arma7subviewIdE10inplace_opINS_15op_internal_equEEEvRKS1_PKc"
 "_ZN4arma7subviewIdE10inplace_opINS_15op_internal_equENS_10xtrans_matIdLb1EEEEEvRKNS_4BaseIdT0_EEPKc"
 "_ZN4arma7subviewIdE10inplace_opINS_15op_internal_equENS_2OpINS_11subview_colIdEENS_9op_htransEEEEEvRKNS_4BaseIdT0_EEPKc"
 "_ZN4arma7subviewIdE10inplace_opINS_15op_internal_equENS_2OpINS_3ColIdEENS_9op_htransEEEEEvRKNS_4BaseIdT0_EEPKc"
 "_ZN4arma7subviewIdE10inplace_opINS_15op_internal_equENS_3MatIdEEEEvRKNS_4BaseIdT0_EEPKc"
 "_ZN4arma7subviewIdE10inplace_opINS_15op_internal_equENS_3eOpINS_11subview_colIdEENS_19eop_scalar_div_postEEEEEvRKNS_4BaseIdT0_EEPKc"
 "_ZN4arma7subviewIdE10inplace_opINS_15op_internal_equENS_3eOpINS_2OpINS_11subview_colIdEENS_9op_htransEEENS_19eop_scalar_div_postEEEEEvRKNS_4BaseIdT0_EEPKc"
 "_ZN4arma7subviewIdE10inplace_opINS_15op_internal_equENS_3eOpINS_2OpINS_3MatIdEENS_9op_htransEEENS_19eop_scalar_div_postEEEEEvRKNS_4BaseIdT0_EEPKc"
 "_ZN4arma7subviewIdE10inplace_opINS_15op_internal_equENS_3eOpINS_3MatIdEENS_19eop_scalar_div_postEEEEEvRKNS_4BaseIdT0_EEPKc"
 "_ZN4arma7subviewIdE10inplace_opINS_15op_internal_equENS_5eGlueINS4_INS_11subview_colIdEENS_4GlueINS_3MatIdEES6_NS_10glue_timesEEENS_11eglue_minusEEES9_SC_EEEEvRKNS_4BaseIdT0_EEPKc"
 "_ZN4arma7subviewIdE10inplace_opINS_15op_internal_equENS_5eGlueINS_11subview_colIdEENS_3MatIdEENS_11eglue_minusEEEEEvRKNS_4BaseIdT0_EEPKc"
 "_ZN4arma7subviewIdE10inplace_opINS_15op_internal_equENS_5eGlueINS_11subview_colIdEES6_NS_11eglue_minusEEEEEvRKNS_4BaseIdT0_EEPKc"
 "_ZN4arma7subviewIdEaSINS_3MatIdEENS_9gen_zerosEEENS_10enable_if2IXsrNS_12is_same_typeINT_9elem_typeEdEE5valueEvE6resultERKNS_3GenIS8_T0_EE"
 "_ZN4arma8arrayops10copy_smallIdEEvPT_PKS2_j"
 "_ZN4arma8arrayops17inplace_set_smallIdEEvPT_S2_j"
 "_ZN4arma8eop_coreINS_16eop_scalar_timesEE5applyINS_3MatIdEENS_3eOpINS6_INS_13subview_elem1IdNS_4mtOpIjNS_3ColIdEENS_13op_sort_indexEEEEENS_20eop_scalar_minus_preEEENS_7eop_logEEEEEvRT_RKNS6_IT0_S1_EE"
 "_ZN4arma8eop_coreINS_19eop_scalar_div_postEE5applyINS_3MatIdEES5_EEvRT_RKNS_3eOpIT0_S1_EE"
 "_ZN4arma9op_strans17apply_mat_inplaceIdEEvRNS_3MatIT_EE"
 "_ZN4arma9op_strans17apply_mat_noaliasIdNS_3MatIdEEEEvRNS2_IT_EERKT0_"
 "_ZN4arma9op_strans24apply_mat_noalias_tinysqIdNS_3ColIdEEEEvRNS_3MatIT_EERKT0_"
 "_ZN4arma9op_strans24apply_mat_noalias_tinysqIdNS_3MatIdEEEEvRNS2_IT_EERKT0_"
 "_ZN4arma9op_trimat12apply_unwrapIdEEvRNS_3MatIT_EERKS4_b"
 "_ZN4arma9syrk_emulILb1ELb0ELb0EE5applyIdNS_3MatIdEEEEvRNS3_IT_EERKT0_S5_S5_"
 "_ZSt13__adjust_heapIN9__gnu_cxx17__normal_iteratorIPN4arma22arma_sort_index_packetIdEESt6vectorIS4_SaIS4_EEEExS4_NS0_5__ops15_Iter_comp_iterINS2_29arma_sort_index_helper_ascendIdEEEEEvT_T0_SG_T1_T2_"
 "_ZSt13__adjust_heapIN9__gnu_cxx17__normal_iteratorIPN4arma22arma_sort_index_packetIdEESt6vectorIS4_SaIS4_EEEExS4_NS0_5__ops15_Iter_comp_iterINS2_30arma_sort_index_helper_descendIdEEEEEvT_T0_SG_T1_T2_"
 "_ZSt13__adjust_heapIPdxdN9__gnu_cxx5__ops15_Iter_comp_iterIN4arma18arma_gt_comparatorIdEEEEEvT_T0_S9_T1_T2_"
 "_ZSt13__adjust_heapIPdxdN9__gnu_cxx5__ops15_Iter_comp_iterIN4arma18arma_lt_comparatorIdEEEEEvT_T0_S9_T1_T2_"
 "_ZSt16__insertion_sortIN9__gnu_cxx17__normal_iteratorIPN4arma22arma_sort_index_packetIdEESt6vectorIS4_SaIS4_EEEENS0_5__ops15_Iter_comp_iterINS2_29arma_sort_index_helper_ascendIdEEEEEvT_SF_T0_"
 "_ZSt16__insertion_sortIN9__gnu_cxx17__normal_iteratorIPN4arma22arma_sort_index_packetIdEESt6vectorIS4_SaIS4_EEEENS0_5__ops15_Iter_comp_iterINS2_30arma_sort_index_helper_descendIdEEEEEvT_SF_T0_"
 "_ZSt16__insertion_sortIPdN9__gnu_cxx5__ops15_Iter_comp_iterIN4arma18arma_gt_comparatorIdEEEEEvT_S8_T0_"
 "_ZSt16__insertion_sortIPdN9__gnu_cxx5__ops15_Iter_comp_iterIN4arma18arma_lt_comparatorIdEEEEEvT_S8_T0_"
 "_ZSt16__introsort_loopIN9__gnu_cxx17__normal_iteratorIPN4arma22arma_sort_index_packetIdEESt6vectorIS4_SaIS4_EEEExNS0_5__ops15_Iter_comp_iterINS2_29arma_sort_index_helper_ascendIdEEEEEvT_SF_T0_T1_"
 "_ZSt16__introsort_loopIN9__gnu_cxx17__normal_iteratorIPN4arma22arma_sort_index_packetIdEESt6vectorIS4_SaIS4_EEEExNS0_5__ops15_Iter_comp_iterINS2_30arma_sort_index_helper_descendIdEEEEEvT_SF_T0_T1_"
 "_ZSt16__introsort_loopIPdxN9__gnu_cxx5__ops15_Iter_comp_iterIN4arma18arma_gt_comparatorIdEEEEEvT_S8_T0_T1_"
 "_ZSt16__introsort_loopIPdxN9__gnu_cxx5__ops15_Iter_comp_iterIN4arma18arma_lt_comparatorIdEEEEEvT_S8_T0_T1_"
 "_ZTCN4Rcpp8RostreamILb0EEE0_So"
 "_ZTCN4Rcpp8RostreamILb1EEE0_So"
 "_ZTIN4Rcpp10RstreambufILb0EEE"
 "_ZTIN4Rcpp10RstreambufILb1EEE"
 "_ZTIN4Rcpp8RostreamILb0EEE"
 "_ZTIN4Rcpp8RostreamILb1EEE"
 "_ZTISt11logic_error"
 "_ZTISt12out_of_range"
 "_ZTISt13runtime_error"
 "_ZTISt9bad_alloc"
 "_ZTISt9exception"
 "_ZTSN4Rcpp10RstreambufILb0EEE"
 "_ZTSN4Rcpp10RstreambufILb1EEE"
 "_ZTSN4Rcpp8RostreamILb0EEE"
 "_ZTSN4Rcpp8RostreamILb1EEE"
 "_ZTSSt11logic_error"
 "_ZTSSt12out_of_range"
 "_ZTSSt13runtime_error"
 "_ZTSSt9bad_alloc"
 "_ZTSSt9exception"
 "_ZTTN4Rcpp8RostreamILb0EEE"
 "_ZTTN4Rcpp8RostreamILb1EEE"
 "_ZTVN4Rcpp10RstreambufILb0EEE"
 "_ZTVN4Rcpp10RstreambufILb1EEE"
 "_ZTVN4Rcpp8RostreamILb0EEE"
 "_ZTVN4Rcpp8RostreamILb1EEE"
 "_ZTv0_n24_N4Rcpp8RostreamILb0EED0Ev"
 "_ZTv0_n24_N4Rcpp8RostreamILb0EED1Ev"
 "_ZTv0_n24_N4Rcpp8RostreamILb1EED0Ev"
 "_ZTv0_n24_N4Rcpp8RostreamILb1EED1Ev"
 "_ZZN4arma16arma_cerr_streamIcEERSoPSoE11cerr_stream"
 "_Z10oscillatorifN4arma3ColIdEENS_3MatIdEES3_S1_S1_S1_S3_S3_PKc"
 "_ZGVN4arma5DatumIdE3nanE"
 "_ZN4Rcpp10RstreambufILb0EE4syncEv"
 "_ZN4Rcpp10RstreambufILb0EE6xsputnEPKcx"
 "_ZN4Rcpp10RstreambufILb0EE8overflowEi"
 "_ZN4Rcpp10RstreambufILb0EED0Ev"
 "_ZN4Rcpp10RstreambufILb0EED1Ev"
 "_ZN4Rcpp10RstreambufILb1EE4syncEv"
 "_ZN4Rcpp10RstreambufILb1EE6xsputnEPKcx"
 "_ZN4Rcpp10RstreambufILb1EE8overflowEi"
 "_ZN4Rcpp10RstreambufILb1EED0Ev"
 "_ZN4Rcpp10RstreambufILb1EED1Ev"
 "_ZN4Rcpp8RostreamILb0EED0Ev"
 "_ZN4Rcpp8RostreamILb0EED1Ev"
 "_ZN4Rcpp8RostreamILb1EED0Ev"
 "_ZN4Rcpp8RostreamILb1EED1Ev"
 "_ZN4arma10eglue_coreINS_10eglue_plusEE5applyINS_3MatIdEENS_5eGlueINS_11subview_colIdEENS_3eOpIS5_NS_16eop_scalar_timesEEES1_EENS_4GlueIS5_S8_NS_10glue_timesEEEEEvRT_RKNS6_IT0_T1_S1_EE"
 "_ZN4arma16gemv_emul_tinysqILb0ELb0ELb0EE5applyIdNS_3MatIdEEEEvPT_RKT0_PKS5_S5_S5_"
 "_ZN4arma16gemv_emul_tinysqILb1ELb0ELb0EE5applyIdNS_3ColIdEEEEvPT_RKT0_PKS5_S5_S5_"
 "_ZN4arma27glue_times_redirect2_helperILb0EE5applyINS_3MatIdEENS_11subview_colIdEEEEvRNS3_INT_9elem_typeEEERKNS_4GlueIS7_T0_NS_10glue_timesEEE"
 "_ZN4arma3ColIdEC1ERKS1_"
 "_ZN4arma3ColIdEC1INS_7subviewIdEEEERKNS_4BaseIdT_EE"
 "_ZN4arma3MatIdE9init_coldEv"
 "_ZN4arma3MatIdE9init_warmEjj"
 "_ZN4arma3MatIdE9steal_memERS1_"
 "_ZN4arma3MatIdEC1ERKS1_"
 "_ZN4arma5DatumIdE3nanE"
 "_ZN4arma5ProxyINS_4GlueINS_3MatIdEENS_11subview_colIdEENS_10glue_timesEEEED1Ev"
 "_ZN4arma7subviewIdE10inplace_opINS_15op_internal_equEEEvRKS1_PKc"
 "_ZN4arma7subviewIdE10inplace_opINS_15op_internal_equENS_3MatIdEEEEvRKNS_4BaseIdT0_EEPKc"
 "_ZN4arma7subviewIdE10inplace_opINS_15op_internal_equENS_5eGlueINS4_INS_11subview_colIdEENS_3eOpINS_3ColIdEENS_16eop_scalar_timesEEENS_10eglue_plusEEENS_4GlueINS_3MatIdEES6_NS_10glue_timesEEESC_EEEEvRKNS_4BaseIdT0_EEPKc"
 "_ZN4arma8arrayops10copy_smallIdEEvPT_PKS2_j"
 "_ZN4arma9op_strans17apply_mat_inplaceIdEEvRNS_3MatIT_EE"
 "_ZN4arma9op_strans24apply_mat_noalias_tinysqIdNS_3MatIdEEEEvRNS2_IT_EERKT0_"
 "_ZTCN4Rcpp8RostreamILb0EEE0_So"
 "_ZTCN4Rcpp8RostreamILb1EEE0_So"
 "_ZTIN4Rcpp10RstreambufILb0EEE"
 "_ZTIN4Rcpp10RstreambufILb1EEE"
 "_ZTIN4Rcpp8RostreamILb0EEE"
 "_ZTIN4Rcpp8RostreamILb1EEE"
 "_ZTISt11logic_error"
 "_ZTISt12out_of_range"
 "_ZTISt13runtime_error"
 "_ZTISt9bad_alloc"
 "_ZTISt9exception"
 "_ZTSN4Rcpp10RstreambufILb0EEE"
 "_ZTSN4Rcpp10RstreambufILb1EEE"
 "_ZTSN4Rcpp8RostreamILb0EEE"
 "_ZTSN4Rcpp8RostreamILb1EEE"
 "_ZTSSt11logic_error"
 "_ZTSSt12out_of_range"
 "_ZTSSt13runtime_error"
 "_ZTSSt9bad_alloc"
 "_ZTSSt9exception"
 "_ZTTN4Rcpp8RostreamILb0EEE"
 "_ZTTN4Rcpp8RostreamILb1EEE"
 "_ZTVN4Rcpp10RstreambufILb0EEE"
 "_ZTVN4Rcpp10RstreambufILb1EEE"
 "_ZTVN4Rcpp8RostreamILb0EEE"
 "_ZTVN4Rcpp8RostreamILb1EEE"
 "_ZTv0_n24_N4Rcpp8RostreamILb0EED0Ev"
 "_ZTv0_n24_N4Rcpp8RostreamILb0EED1Ev"
 "_ZTv0_n24_N4Rcpp8RostreamILb1EED0Ev"
 "_ZTv0_n24_N4Rcpp8RostreamILb1EED1Ev"
 "_ZZN4arma16arma_cerr_streamIcEERSoPSoE11cerr_stream"
 "_Z11penAlphaCppN4arma3MatIdEEiS1_S1_iNS_3ColIdEEidfdb"
 "_Z21get_startingValuesCppN4arma3MatIdEES1_S1_S1_b"
 "_Z21penAlphaCppAggregatedN4arma3MatIdEES1_iS1_S1_iNS_3ColIdEEidfdb"
 "_Z9nts_muCppN4arma3MatIdEES1_S1_S1_"
 "_ZGVN4arma5DatumIdE3nanE"
 "_ZGVZ7dataptrP7SEXPRECE3fun"
 "_ZGVZN4Rcpp20Rcpp_precious_removeEP7SEXPRECE3fun"
 "_ZGVZN4Rcpp22Rcpp_precious_preserveEP7SEXPRECE3fun"
 "_ZN10tinyformat6detail10formatImplERSoPKcPKNS0_9FormatArgEi"
 "_ZN10tinyformat6detail15formatTruncatedINSt7__cxx1112basic_stringIcSt11char_traitsIcESaIcEEEEEvRSoRKT_i"
 "_ZN10tinyformat6detail15formatTruncatedIiEEvRSoRKT_i"
 "_ZN10tinyformat6detail21streamStateFromFormatERSoRbRiPKcPKNS0_9FormatArgES3_i"
 "_ZN10tinyformat6detail9FormatArg10formatImplINSt7__cxx1112basic_stringIcSt11char_traitsIcESaIcEEEEEvRSoPKcSB_iPKv"
 "_ZN10tinyformat6detail9FormatArg10formatImplIPKcEEvRSoS4_S4_iPKv"
 "_ZN10tinyformat6detail9FormatArg10formatImplIiEEvRSoPKcS5_iPKv"
 "_ZN10tinyformat6detail9FormatArg9toIntImplINSt7__cxx1112basic_stringIcSt11char_traitsIcESaIcEEEEEiPKv"
 "_ZN10tinyformat6detail9FormatArg9toIntImplIPKcEEiPKv"
 "_ZN10tinyformat6detail9FormatArg9toIntImplIiEEiPKv"
 "_ZN10tinyformat6formatIJEEENSt7__cxx1112basic_stringIcSt11char_traitsIcESaIcEEEPKcDpRKT_"
 "_ZN10tinyformat6formatIJNSt7__cxx1112basic_stringIcSt11char_traitsIcESaIcEEEEEES6_PKcDpRKT_"
 "_ZN10tinyformat6formatIJPKcEEENSt7__cxx1112basic_stringIcSt11char_traitsIcESaIcEEES2_DpRKT_"
 "_ZN10tinyformat6formatIJPKcS2_EEENSt7__cxx1112basic_stringIcSt11char_traitsIcESaIcEEES2_DpRKT_"
 "_ZN10tinyformat6formatIJPKciEEENSt7__cxx1112basic_stringIcSt11char_traitsIcESaIcEEES2_DpRKT_"
 "_ZN10tinyformat6formatIJiEEENSt7__cxx1112basic_stringIcSt11char_traitsIcESaIcEEEPKcDpRKT_"
 "_ZN4Rcpp10RstreambufILb0EE4syncEv"
 "_ZN4Rcpp10RstreambufILb0EE6xsputnEPKcx"
 "_ZN4Rcpp10RstreambufILb0EE8overflowEi"
 "_ZN4Rcpp10RstreambufILb0EED0Ev"
 "_ZN4Rcpp10RstreambufILb0EED1Ev"
 "_ZN4Rcpp10RstreambufILb1EE4syncEv"
 "_ZN4Rcpp10RstreambufILb1EE6xsputnEPKcx"
 "_ZN4Rcpp10RstreambufILb1EE8overflowEi"
 "_ZN4Rcpp10RstreambufILb1EED0Ev"
 "_ZN4Rcpp10RstreambufILb1EED1Ev"
 "_ZN4Rcpp10eval_errorD0Ev"
 "_ZN4Rcpp10eval_errorD1Ev"
 "_ZN4Rcpp12no_such_slotC1ERKNSt7__cxx1112basic_stringIcSt11char_traitsIcESaIcEEE"
 "_ZN4Rcpp12no_such_slotD0Ev"
 "_ZN4Rcpp12no_such_slotD1Ev"
 "_ZN4Rcpp12not_a_matrixD0Ev"
 "_ZN4Rcpp12not_a_matrixD1Ev"
 "_ZN4Rcpp13RcppArmadillo9arma_wrapIN4arma3ColIdEEEEP7SEXPRECRKT_RKNS_9DimensionE"
 "_ZN4Rcpp13RcppArmadillo9arma_wrapIN4arma3MatIdEEEEP7SEXPRECRKT_RKNS_9DimensionE"
 "_ZN4Rcpp14not_compatibleC1IJPKcEEES3_DpOT_"
 "_ZN4Rcpp14not_compatibleC1IJPKcS3_EEES3_DpOT_"
 "_ZN4Rcpp14not_compatibleD0Ev"
 "_ZN4Rcpp14not_compatibleD1Ev"
 "_ZN4Rcpp15SlotProxyPolicyINS_7S4_ImplINS_15PreserveStorageEEEE4slotERKNSt7__cxx1112basic_stringIcSt11char_traitsIcESaIcEEE"
 "_ZN4Rcpp16Environment_ImplINS_15PreserveStorageEE13namespace_envERKNSt7__cxx1112basic_stringIcSt11char_traitsIcESaIcEEE"
 "_ZN4Rcpp17no_such_namespaceC1ERKNSt7__cxx1112basic_stringIcSt11char_traitsIcESaIcEEE"
 "_ZN4Rcpp17no_such_namespaceD0Ev"
 "_ZN4Rcpp17no_such_namespaceD1Ev"
 "_ZN4Rcpp19index_out_of_boundsD0Ev"
 "_ZN4Rcpp19index_out_of_boundsD1Ev"
 "_ZN4Rcpp20AttributeProxyPolicyINS_12RObject_ImplINS_15PreserveStorageEEEE14AttributeProxyaSINS_9DimensionEEERS5_RKT_"
 "_ZN4Rcpp20Rcpp_precious_removeEP7SEXPREC"
 "_ZN4Rcpp22Rcpp_precious_preserveEP7SEXPREC"
 "_ZN4Rcpp4growINS_6traits12named_objectIA9_cEEEEP7SEXPRECRKT_S6_"
 "_ZN4Rcpp4growINS_6traits12named_objectIN4arma11subview_colIdEEEEEEP7SEXPRECRKT_S8_"
 "_ZN4Rcpp4growINS_6traits12named_objectIN4arma3MatIdEEEEEEP7SEXPRECRKT_S8_"
 "_ZN4Rcpp4growINS_6traits12named_objectIbEEEEP7SEXPRECRKT_S5_"
 "_ZN4Rcpp4growINS_6traits12named_objectIdEEEEP7SEXPRECRKT_S5_"
 "_ZN4Rcpp4stopERKNSt7__cxx1112basic_stringIcSt11char_traitsIcESaIcEEE"
 "_ZN4Rcpp4stopIJEEEvPKcDpOT_"
 "_ZN4Rcpp6VectorILi19ENS_15PreserveStorageEEC1EP7SEXPREC"
 "_ZN4Rcpp6not_s4D0Ev"
 "_ZN4Rcpp6not_s4D1Ev"
 "_ZN4Rcpp6r_castILi14EEEP7SEXPRECS2_"
 "_ZN4Rcpp6r_castILi16EEEP7SEXPRECS2_"
 "_ZN4Rcpp6r_castILi19EEEP7SEXPRECS2_"
 "_ZN4Rcpp6traits14MatrixExporterIN4arma3MatIdEEdE3getEv"
 "_ZN4Rcpp6traits8ExporterIN4arma5SpMatIdEEE3getEv"
 "_ZN4Rcpp8RostreamILb0EED0Ev"
 "_ZN4Rcpp8RostreamILb0EED1Ev"
 "_ZN4Rcpp8RostreamILb1EED0Ev"
 "_ZN4Rcpp8RostreamILb1EED1Ev"
 "_ZN4Rcpp8internal10basic_castILi13EEEP7SEXPRECS3_"
 "_ZN4Rcpp8internal10basic_castILi14EEEP7SEXPRECS3_"
 "_ZN4Rcpp8internal12primitive_asIjEET_P7SEXPREC"
 "_ZN4Rcpp8internal14grow__dispatchINS_6traits12named_objectIN4arma11subview_colIdEEEEEEP7SEXPRECNS2_17integral_constantIbLb1EEERKT_S9_"
 "_ZN4Rcpp8internal19check_single_stringEP7SEXPREC"
 "_ZN4Rcpp8internal21export_indexing__implIN4arma3ColIdEEdEEvP7SEXPRECRT_NS_6traits17integral_constantIbLb0EEE"
 "_ZN4Rcpp8internal21export_indexing__implIN4arma3MatIdEEdEEvP7SEXPRECRT_NS_6traits17integral_constantIbLb0EEE"
 "_ZN4Rcpp8internal21export_indexing__implIN4arma3RowIjEEjEEvP7SEXPRECRT_NS_6traits17integral_constantIbLb1EEE"
 "_ZN4Rcpp8pairlistINS_6traits12named_objectIN4arma3MatIdEEEENS2_INS3_3ColIdEEEENS2_IA7_cEENS2_IbEESC_EEP7SEXPRECRKT_RKT0_RKT1_RKT2_RKT3_"
 "_ZN4Rcpp9Rcpp_evalEP7SEXPRECS1_"
 "_ZN4Rcpp9exceptionD0Ev"
 "_ZN4Rcpp9exceptionD1Ev"
 "_ZN4arma10eglue_coreINS_11eglue_minusEE5applyINS_3MatIdEENS_5eGlueIS5_NS_4GlueINS_3GenIS5_NS_8gen_onesEEENS_2OpIS5_NS_9op_htransEEENS_10glue_timesEEES1_EENS7_INS7_IS5_S5_SE_EESD_SE_EEEEvRT_RKNS6_IT0_T1_S1_EE"
 "_ZN4arma10eglue_coreINS_11eglue_minusEE5applyINS_3MatIdEES5_NS_4GlueINS_3GenIS5_NS_8gen_onesEEENS_2OpIS5_NS_9op_htransEEENS_10glue_timesEEEEEvRT_RKNS_5eGlueIT0_T1_S1_EE"
 "_ZN4arma10glue_times5applyIdLb0ELb0ELb0ELb0ELb0ENS_3MatIdEES3_S3_S3_EEvRNS2_IT_EERKT5_RKT6_RKT7_RKT8_S4_"
 "_ZN4arma10glue_times5applyIdLb0ELb0ELb0ENS_3MatIdEES3_EEvRNS2_IT_EERKT3_RKT4_S4_"
 "_ZN4arma10glue_times5applyIdLb0ELb1ELb0ENS_3MatIdEES3_EEvRNS2_IT_EERKT3_RKT4_S4_"
 "_ZN4arma10glue_times5applyIdLb1ELb0ELb0ENS_3MatIdEES3_EEvRNS2_IT_EERKT3_RKT4_S4_"
 "_ZN4arma10op_diagmat5applyINS_4mtOpIdNS_3MatIdEENS_6op_varEEEEEvRNS3_INT_9elem_typeEEERKNS_2OpIS7_S0_EE"
 "_ZN4arma10spdiagviewIdE4fillEd"
 "_ZN4arma11band_helper8compressIdEEvRNS_3MatIT_EERKS4_jjb"
 "_ZN4arma11spop_strans13apply_noaliasIdEEvRNS_5SpMatIT_EERKS4_"
 "_ZN4arma11spop_symmat5applyINS_5SpMatIdEEEEvRNS2_INT_9elem_typeEEERKNS_4SpOpIS4_S0_EE"
 "_ZN4arma11spop_trimat13apply_noaliasINS_5SpMatIdEEEEvRNS2_INT_9elem_typeEEERKNS_7SpProxyIS4_EEb"
 "_ZN4arma11syrk_helper35inplace_copy_upper_tri_to_lower_triIdEEvRNS_3MatIT_EE"
 "_ZN4arma12spglue_merge14diagview_mergeIdEEvRNS_5SpMatIT_EERKS4_S7_"
 "_ZN4arma12spglue_times13apply_noaliasIdEEvRNS_5SpMatIT_EERKS4_S7_"
 "_ZN4arma12sympd_helper18guess_sympd_workerIdEENS_10enable_if2IXsrNS_5is_cxIT_EE2noEbE6resultERKNS_3MatIS4_EE"
 "_ZN4arma12unwrap_checkINS_3MatIdEEED1Ev"
 "_ZN4arma13accu_proxy_atINS_3eOpINS_7subviewIdEENS_7eop_powEEEEENT_9elem_typeERKNS_5ProxyIS6_EE"
 "_ZN4arma13subview_each1INS_3MatIdEELj0EEpLINS_7subviewIdEEEEvRKNS_4BaseIdT_EE"
 "_ZN4arma13trimat_helper7is_triuIdEEbRKNS_3MatIT_EE"
 "_ZN4arma14glue_join_cols13apply_noaliasINS_3MatIdEENS_2OpIS3_NS_9op_htransEEEEEvRNS2_INT_9elem_typeEEERKNS_5ProxyIS7_EERKNSB_IT0_EE"
 "_ZN4arma14glue_join_cols5applyINS_3RowIjEES3_EEvRNS_3MatINT_9elem_typeEEERKNS_4GlueIS5_T0_S0_EE"
 "_ZN4arma14glue_join_cols5applyIdNS_2OpINS_3MatIdEENS_9op_htransEEES6_S6_S4_EEvRNS3_IT_EERKNS_4BaseIS7_T0_EERKNSA_IS7_T1_EERKNSA_IS7_T2_EERKNSA_IS7_T3_EE"
 "_ZN4arma14glue_join_rows5applyINS_3MatIdEENS_11subview_colIdEEEEvRNS2_INT_9elem_typeEEERKNS_4GlueIS6_T0_S0_EE"
 "_ZN4arma14glue_solve_gen5applyIdNS_3MatIdEENS_3GenIS3_NS_7gen_eyeEEEEEbRNS2_IT_EERKNS_4BaseIS7_T0_EERKNSA_IS7_T1_EEj"
 "_ZN4arma15gemm_emul_largeILb0ELb0ELb0ELb0EE5applyIdNS_3MatIdEES4_EEvRNS3_IT_EERKT0_RKT1_S5_S5_"
 "_ZN4arma16gemm_emul_tinysqILb0ELb0ELb0EE5applyIdNS_3MatIdEES4_EEvRNS3_IT_EERKT0_RKT1_S5_S5_"
 "_ZN4arma16gemv_emul_tinysqILb0ELb0ELb0EE5applyIdNS_3MatIdEEEEvPT_RKT0_PKS5_S5_S5_"
 "_ZN4arma16gemv_emul_tinysqILb1ELb0ELb0EE5applyIdNS_3ColIdEEEEvPT_RKT0_PKS5_S5_S5_"
 "_ZN4arma16gemv_emul_tinysqILb1ELb0ELb0EE5applyIdNS_3MatIdEEEEvPT_RKT0_PKS5_S5_S5_"
 "_ZN4arma17accu_proxy_linearINS_3eOpINS_3MatIdEENS_7eop_absEEEEENT_9elem_typeERKNS_5ProxyIS6_EE"
 "_ZN4arma17spglue_times_misc18dense_times_sparseINS_3eOpINS_3MatIdEENS_7eop_negEEENS_5SpMatIdEEEEvRNS3_INT_9elem_typeEEERKS9_RKT0_"
 "_ZN4arma17subview_each1_aux14operator_minusINS_3MatIdEELj1ENS_2OpIS3_NS_7op_meanEEEEENS2_INT_9elem_typeEEERKNS_13subview_each1IS7_XT0_EEERKNS_4BaseIS8_T1_EE"
 "_ZN4arma18unwrap_check_mixedINS_3MatIdEEED1Ev"
 "_ZN4arma19glue_times_redirectILj6EE5applyINS_4GlueINS3_INS3_INS3_INS_3MatIdEENS_2OpIS5_NS_9op_htransEEENS_10glue_timesEEENS_5eGlueIS5_NS3_INS_3GenIS5_NS_8gen_onesEEES8_S9_EENS_11eglue_minusEEES9_EES5_S9_EES5_S9_EES5_EEvRNS4_INT_9elem_typeEEERKNS3_ISL_T0_S9_EE"
 "_ZN4arma22arma_sort_index_helperINS_3MatIjEELb0EEEbRS2_RKNS_5ProxyIT_EEj"
 "_ZN4arma27glue_times_redirect2_helperILb0EE5applyINS_2OpINS_3MatIdEENS_9op_htransEEES5_EEvRNS4_INT_9elem_typeEEERKNS_4GlueIS8_T0_NS_10glue_timesEEE"
 "_ZN4arma27glue_times_redirect2_helperILb0EE5applyINS_3GenINS_3MatIdEENS_8gen_onesEEENS_2OpIS5_NS_7op_meanEEEEEvRNS4_INT_9elem_typeEEERKNS_4GlueISB_T0_NS_10glue_timesEEE"
 "_ZN4arma27glue_times_redirect2_helperILb0EE5applyINS_3GenINS_3MatIdEENS_8gen_onesEEENS_2OpIS5_NS_9op_htransEEEEEvRNS4_INT_9elem_typeEEERKNS_4GlueISB_T0_NS_10glue_timesEEE"
 "_ZN4arma27glue_times_redirect2_helperILb0EE5applyINS_3GenINS_3MatIdEENS_8gen_onesEEES5_EEvRNS4_INT_9elem_typeEEERKNS_4GlueIS8_T0_NS_10glue_timesEEE"
 "_ZN4arma27glue_times_redirect2_helperILb0EE5applyINS_3MatIdEENS_11subview_colIdEEEEvRNS3_INT_9elem_typeEEERKNS_4GlueIS7_T0_NS_10glue_timesEEE"
 "_ZN4arma27glue_times_redirect2_helperILb0EE5applyINS_3MatIdEENS_2OpIS4_NS_9op_htransEEEEEvRNS3_INT_9elem_typeEEERKNS_4GlueIS8_T0_NS_10glue_timesEEE"
 "_ZN4arma27glue_times_redirect2_helperILb0EE5applyINS_3MatIdEES4_EEvRNS3_INT_9elem_typeEEERKNS_4GlueIS5_T0_NS_10glue_timesEEE"
 "_ZN4arma27glue_times_redirect2_helperILb0EE5applyINS_4GlueINS_3MatIdEENS_3GenIS5_NS_7gen_eyeEEENS_14glue_solve_genEEENS_2OpIS5_NS_9op_htransEEEEEvRNS4_INT_9elem_typeEEERKNS3_ISE_T0_NS_10glue_timesEEE"
 "_ZN4arma27glue_times_redirect2_helperILb1EE5applyINS_2OpINS_3MatIdEENS_6op_invEEENS3_IS5_NS_9op_htransEEEEEvRNS4_INT_9elem_typeEEERKNS_4GlueISA_T0_NS_10glue_timesEEE"
 "_ZN4arma27glue_times_redirect3_helperILb0EE5applyINS_2OpINS_3MatIdEENS_9op_htransEEES5_S5_EEvRNS4_INT_9elem_typeEEERKNS_4GlueINSC_IS8_T0_NS_10glue_timesEEET1_SE_EE"
 "_ZN4arma27glue_times_redirect3_helperILb0EE5applyINS_3MatIdEES4_NS_2OpIS4_NS_9op_htransEEEEEvRNS3_INT_9elem_typeEEERKNS_4GlueINSC_IS8_T0_NS_10glue_timesEEET1_SE_EE"
 "_ZN4arma3ColIdEC1INS_3GenIS1_NS_8gen_onesEEEEERKNS_4BaseIdT_EE"
 "_ZN4arma3ColIdEC1INS_3GenIS1_NS_9gen_zerosEEEEERKNS_4BaseIdT_EE"
 "_ZN4arma3ColIdEC1INS_5eGlueINS_3eOpINS4_INS4_IS1_NS_19eop_scalar_div_postEEENS_7eop_logEEENS_16eop_scalar_timesEEENS4_IS1_S9_EENS_10eglue_plusEEEEERKNS_4BaseIdT_EE"
 "_ZN4arma3MatIdE10soft_resetEv"
 "_ZN4arma3MatIdE3eyeEv"
 "_ZN4arma3MatIdE5resetEv"
 "_ZN4arma3MatIdE5zerosEjj"
 "_ZN4arma3MatIdE9init_coldEv"
 "_ZN4arma3MatIdE9init_warmEjj"
 "_ZN4arma3MatIdE9steal_memERS1_"
 "_ZN4arma3MatIdEC1EOS1_"
 "_ZN4arma3MatIdEC1ERKNS_7subviewIdEE"
 "_ZN4arma3MatIdEC1ERKS1_"
 "_ZN4arma3MatIdEC1INS_3GenIS1_NS_8gen_onesEEENS_16eop_scalar_timesEEERKNS_3eOpIT_T0_EE"
 "_ZN4arma3MatIdEC1INS_5eGlueIS1_NS_4GlueINS_3GenIS1_NS_8gen_onesEEENS_2OpIS1_NS_9op_htransEEENS_10glue_timesEEENS_11eglue_minusEEENS4_INS4_IS1_S1_SB_EESA_SB_EESD_EERKNS3_IT_T0_T1_EE"
 "_ZN4arma3MatIdEC1IS1_NS_4GlueINS3_IS1_S1_NS_10glue_timesEEENS_2OpIS1_NS_9op_htransEEES4_EENS_11eglue_minusEEERKNS_5eGlueIT_T0_T1_EE"
 "_ZN4arma3MatIdEC1IS1_NS_4GlueINS_3GenIS1_NS_8gen_onesEEENS_2OpIS1_NS_7op_meanEEENS_10glue_timesEEENS_11eglue_minusEEERKNS_5eGlueIT_T0_T1_EE"
 "_ZN4arma3MatIdEC1IS1_NS_4GlueINS_3GenIS1_NS_8gen_onesEEENS_2OpIS1_NS_9op_htransEEENS_10glue_timesEEENS_11eglue_minusEEERKNS_5eGlueIT_T0_T1_EE"
 "_ZN4arma3MatIdEC1IS1_NS_4GlueINS_3GenIS1_NS_8gen_onesEEES1_NS_10glue_timesEEENS_9eglue_divEEERKNS_5eGlueIT_T0_T1_EE"
 "_ZN4arma3MatIdEC1IS1_NS_9op_htransEEERKNS_2OpIT_T0_EE"
 "_ZN4arma3MatIdEaSERKNS_7subviewIdEE"
 "_ZN4arma3MatIdEaSINS_4GlueINS_2OpIS1_NS_9op_htransEEES1_NS_10glue_timesEEENS_19eop_scalar_div_postEEERS1_RKNS_3eOpIT_T0_EE"
 "_ZN4arma3MatIdEaSINS_5SpMatIdEEEERS1_RKNS_6SpBaseIdT_EE"
 "_ZN4arma3MatIdEaSINS_5eGlueIS1_NS_4GlueINS_3GenIS1_NS_8gen_onesEEENS_2OpIS1_NS_9op_htransEEENS_10glue_timesEEENS_11eglue_minusEEENS4_INS4_IS1_S1_SB_EESA_SB_EESD_EERS1_RKNS3_IT_T0_T1_EE"
 "_ZN4arma3MatIjE5resetEv"
 "_ZN4arma3MatIjE9init_coldEv"
 "_ZN4arma3MatIjE9init_warmEjj"
 "_ZN4arma3detINS_3MatIdEEEENS_10enable_if2IXsrNS_22is_supported_blas_typeINT_9elem_typeEEE5valueES6_E6resultERKNS_4BaseIS6_S5_EE"
 "_ZN4arma5DatumIdE3nanE"
 "_ZN4arma5ProxyINS_4GlueINS1_INS_3MatIdEES3_NS_10glue_timesEEENS_2OpIS3_NS_9op_htransEEES4_EEED1Ev"
 "_ZN4arma5ProxyINS_4GlueINS_3GenINS_3MatIdEENS_8gen_onesEEENS_2OpIS4_NS_7op_meanEEENS_10glue_timesEEEED1Ev"
 "_ZN4arma5ProxyINS_4GlueINS_3GenINS_3MatIdEENS_8gen_onesEEENS_2OpIS4_NS_9op_htransEEENS_10glue_timesEEEED1Ev"
 "_ZN4arma5ProxyINS_4GlueINS_3GenINS_3MatIdEENS_8gen_onesEEES4_NS_10glue_timesEEEED1Ev"
 "_ZN4arma5ProxyINS_4GlueINS_3MatIdEENS_2OpIS3_NS_9op_htransEEENS_10glue_timesEEEED1Ev"
 "_ZN4arma5SpMatIdE10mem_resizeEj"
 "_ZN4arma5SpMatIdE12remove_zerosEv"
 "_ZN4arma5SpMatIdE14init_batch_addERKNS_3MatIjEERKNS2_IdEEb"
 "_ZN4arma5SpMatIdE14init_batch_stdERKNS_3MatIjEERKNS2_IdEEb"
 "_ZN4arma5SpMatIdE4initERKNS_6MapMatIdEE"
 "_ZN4arma5SpMatIdE4initEjjj"
 "_ZN4arma5SpMatIdE9init_coldEjjj"
 "_ZN4arma5SpMatIdE9steal_memERS1_"
 "_ZN4arma5SpMatIdEC1EOS1_"
 "_ZN4arma5SpMatIdEC1Ev"
 "_ZN4arma5SpMatIdEC1INS_3eOpINS_4GlueINS_3RowIjEES6_NS_14glue_join_colsEEENS_21eop_scalar_minus_postEEENS_3MatIdEEEEbRKNS_4BaseIjT_EERKNSD_IdT0_EEjjbb"
 "_ZN4arma5SpMatIdEC1INS_4GlueINS_3RowIjEES5_NS_14glue_join_colsEEENS_3MatIdEEEEbRKNS_4BaseIjT_EERKNSA_IdT0_EEjjbb"
 "_ZN4arma5SpMatIdED1Ev"
 "_ZN4arma5SpMatIdEaSIS1_NS_11spop_symmatEEERS1_RKNS_4SpOpIT_T0_EE"
 "_ZN4arma5traceINS_4GlueINS_3MatIdEES3_NS_10glue_timesEEENS_2OpIS3_NS_9op_htransEEEEENS_10enable_if2IXsrNS_5is_cxINT_9elem_typeEEE2noESC_E6resultERKNS1_ISB_T0_S4_EE"
 "_ZN4arma6MapMatIdE5resetEv"
 "_ZN4arma6MapMatIdE9init_coldEv"
 "_ZN4arma6MapMatIdED1Ev"
 "_ZN4arma6auxlib12rcond_trimatIdEET_RKNS_3MatIS2_EEj"
 "_ZN4arma6auxlib15solve_rect_fastINS_3GenINS_3MatIdEENS_7gen_eyeEEEEEbRNS3_INT_9elem_typeEEESA_RKNS_4BaseIS8_S7_EE"
 "_ZN4arma6auxlib16solve_approx_svdINS_3GenINS_3MatIdEENS_7gen_eyeEEEEEbRNS3_INT_8pod_typeEEESA_RKNS_4BaseIS8_S7_EE"
 "_ZN4arma6auxlib16solve_rect_rcondINS_3GenINS_3MatIdEENS_7gen_eyeEEEEEbRNS3_INT_9elem_typeEEERNS7_8pod_typeESA_RKNS_4BaseIS8_S7_EEb"
 "_ZN4arma6auxlib17solve_band_refineINS_3GenINS_3MatIdEENS_7gen_eyeEEEEEbRNS3_INT_8pod_typeEEERS8_SA_jjRKNS_4BaseIS8_S7_EEbb"
 "_ZN4arma6auxlib17solve_square_fastINS_3GenINS_3MatIdEENS_7gen_eyeEEEEEbRNS3_INT_9elem_typeEEESA_RKNS_4BaseIS8_S7_EE"
 "_ZN4arma6auxlib17solve_square_tinyINS_3GenINS_3MatIdEENS_7gen_eyeEEEEEbRNS3_INT_9elem_typeEEERKS9_RKNS_4BaseIS8_S7_EE"
 "_ZN4arma6auxlib17solve_square_tinyINS_3MatIdEEEEbRNS2_INT_9elem_typeEEERKS6_RKNS_4BaseIS5_S4_EE"
 "_ZN4arma6auxlib17solve_sympd_rcondINS_3GenINS_3MatIdEENS_7gen_eyeEEEEEbRNS3_INT_8pod_typeEEERS8_SA_RKNS_4BaseIS8_S7_EEb"
 "_ZN4arma6auxlib18solve_square_rcondINS_3GenINS_3MatIdEENS_7gen_eyeEEEEEbRNS3_INT_9elem_typeEEERNS7_8pod_typeESA_RKNS_4BaseIS8_S7_EEb"
 "_ZN4arma6auxlib18solve_sympd_refineINS_3GenINS_3MatIdEENS_7gen_eyeEEEEEbRNS3_INT_8pod_typeEEERS8_SA_RKNS_4BaseIS8_S7_EEbb"
 "_ZN4arma6auxlib19solve_square_refineINS_3GenINS_3MatIdEENS_7gen_eyeEEEEEbRNS3_INT_8pod_typeEEERS8_SA_RKNS_4BaseIS8_S7_EEbb"
 "_ZN4arma6auxlib23solve_band_rcond_commonINS_3GenINS_3MatIdEENS_7gen_eyeEEEEEbRNS3_INT_9elem_typeEEERNS7_8pod_typeERKS9_jjRKNS_4BaseIS8_S7_EEb"
 "_ZN4arma6auxlib25solve_tridiag_fast_commonINS_3GenINS_3MatIdEENS_7gen_eyeEEEEEbRNS3_INT_9elem_typeEEERKS9_RKNS_4BaseIS8_S7_EE"
 "_ZN4arma6auxlib2qrIdNS_3MatIdEEEEbRNS2_IT_EES6_RKNS_4BaseIS4_T0_EE"
 "_ZN4arma6auxlib6svd_dcIdEEbRNS_3MatIT_EERNS_3ColIS3_EES5_S5_"
 "_ZN4arma6memory7acquireIdEEPT_j"
 "_ZN4arma6memory7acquireIiEEPT_j"
 "_ZN4arma6memory7acquireIjEEPT_j"
 "_ZN4arma6op_cov5applyINS_3MatIdEEEEvRNS2_INT_9elem_typeEEERKNS_2OpIS4_S0_EE"
 "_ZN4arma6op_det10apply_tinyIdEET_RKNS_3MatIS2_EE"
 "_ZN4arma6op_det12apply_directINS_3MatIdEEEEbRNT_9elem_typeERKNS_4BaseIS5_S4_EE"
 "_ZN4arma6op_dot10direct_dotIdEENS_14arma_real_onlyIT_E6resultEjPKS3_S7_"
 "_ZN4arma6op_inv12apply_directINS_3MatIdEEEEbRNS2_INT_9elem_typeEEERKNS_4BaseIS5_S4_EEPKc"
 "_ZN4arma6op_inv18apply_tiny_noaliasIdEEbRNS_3MatIT_EERKS4_"
 "_ZN4arma6op_var10direct_varIdEET_PKS2_jj"
 "_ZN4arma7eig_symINS_3MatIdEEEENS_10enable_if2IXsrNS_22is_supported_blas_typeINT_9elem_typeEEE5valueEbE6resultERNS_3ColINS5_8pod_typeEEERNS1_IS6_EERKNS_4BaseIS6_S5_EEPKc"
 "_ZN4arma7op_mean19apply_noalias_proxyINS_5eGlueINS_3MatIdEENS_4GlueINS5_IS4_S4_NS_10glue_timesEEENS_2OpIS4_NS_9op_htransEEES6_EENS_11eglue_minusEEEEEvRNS3_INT_9elem_typeEEERKNS_5ProxyISE_EEj"
 "_ZN4arma7op_mean20apply_noalias_unwrapINS_3MatIdEEEEvRNS2_INT_9elem_typeEEERKNS_5ProxyIS4_EEj"
 "_ZN4arma7op_mean5applyINS_3MatIdEEEEvRNS2_INT_9elem_typeEEERKNS_2OpIS4_S0_EE"
 "_ZN4arma7op_mean8mean_allINS_3eOpINS2_INS_4GlueINS_3MatIdEENS_11subview_colIdEENS_10glue_timesEEENS_20eop_scalar_minus_preEEENS_7eop_powEEEEENT_9elem_typeERKNS_4BaseISF_SE_EE"
 "_ZN4arma7subviewIdE10inplace_opINS_15op_internal_equEEEvRKS1_PKc"
 "_ZN4arma7subviewIdE10inplace_opINS_15op_internal_equENS_10xtrans_matIdLb1EEEEEvRKNS_4BaseIdT0_EEPKc"
 "_ZN4arma7subviewIdE10inplace_opINS_15op_internal_equENS_2OpINS_3MatIdEENS_9op_htransEEEEEvRKNS_4BaseIdT0_EEPKc"
 "_ZN4arma7subviewIdE10inplace_opINS_15op_internal_equENS_3MatIdEEEEvRKNS_4BaseIdT0_EEPKc"
 "_ZN4arma7subviewIdE10inplace_opINS_15op_internal_equENS_3eOpINS_3GenINS_3MatIdEENS_8gen_onesEEENS_16eop_scalar_timesEEEEEvRKNS_4BaseIdT0_EEPKc"
 "_ZN4arma7subviewIdE7extractERNS_3MatIdEERKS1_"
 "_ZN4arma7subviewIjE10inplace_opINS_15op_internal_equENS_3MatIjEEEEvRKNS_4BaseIjT0_EEPKc"
 "_ZN4arma8arrayops10copy_smallIdEEvPT_PKS2_j"
 "_ZN4arma8arrayops10copy_smallIjEEvPT_PKS2_j"
 "_ZN4arma8arrayops17inplace_set_smallIdEEvPT_S2_j"
 "_ZN4arma8eop_coreINS_16eop_scalar_timesEE5applyINS_3MatIdEES5_EEvRT_RKNS_3eOpIT0_S1_EE"
 "_ZN4arma8glue_cov5applyINS_3MatIdEES3_EEvRNS2_INT_9elem_typeEEERKNS_4GlueIS4_T0_S0_EE"
 "_ZN4arma8podarrayIdE8copy_rowERKNS_3MatIdEEj"
 "_ZN4arma9op_stddev5applyINS_3MatIdEEEEvRNS2_INT_8pod_typeEEERKNS_4mtOpIS5_S4_S0_EE"
 "_ZN4arma9op_strans12apply_directINS_11subview_rowIdEEEEvRNS_3MatINT_9elem_typeEEERKS5_"
 "_ZN4arma9op_strans12apply_directINS_2OpINS_5eGlueINS_3MatIdEENS_4GlueINS6_IS5_S5_NS_10glue_timesEEENS2_IS5_NS_9op_htransEEES7_EENS_11eglue_minusEEENS_7op_meanEEEEEvRNS4_INT_9elem_typeEEERKSG_"
 "_ZN4arma9op_strans12apply_directINS_7subviewIdEEEEvRNS_3MatINT_9elem_typeEEERKS5_"
 "_ZN4arma9op_strans17apply_mat_inplaceIdEEvRNS_3MatIT_EE"
 "_ZN4arma9op_strans17apply_mat_noaliasIdNS_3MatIdEEEEvRNS2_IT_EERKT0_"
 "_ZN4arma9op_strans24apply_mat_noalias_tinysqIdNS_3MatIdEEEEvRNS2_IT_EERKT0_"
 "_ZN4arma9op_trimat12apply_unwrapIdEEvRNS_3MatIT_EERKS4_b"
 "_ZN4arma9syrk_emulILb1ELb0ELb0EE5applyIdNS_3MatIdEEEEvRNS3_IT_EERKT0_S5_S5_"
 "_ZNK4Rcpp10eval_error4whatEv"
 "_ZNK4Rcpp12no_such_slot4whatEv"
 "_ZNK4Rcpp12not_a_matrix4whatEv"
 "_ZNK4Rcpp13BindingPolicyINS_16Environment_ImplINS_15PreserveStorageEEEE7BindingcvT_INS_13Function_ImplIS2_EEEEv"
 "_ZNK4Rcpp13Function_ImplINS_15PreserveStorageEE6invokeEP7SEXPRECS4_"
 "_ZNK4Rcpp13Function_ImplINS_15PreserveStorageEEclINS_6traits12named_objectIN4arma3MatIdEEEES9_S9_NS5_IbEENS5_IA9_cEENS5_IdEEEEP7SEXPRECRKT_RKT0_RKT1_RKT2_RKT3_RKT4_"
 "_ZNK4Rcpp14not_compatible4whatEv"
 "_ZNK4Rcpp15SlotProxyPolicyINS_7S4_ImplINS_15PreserveStorageEEEE9SlotProxycvT_IN4arma3ColIdEEEEv"
 "_ZNK4Rcpp15SlotProxyPolicyINS_7S4_ImplINS_15PreserveStorageEEEE9SlotProxycvT_IN4arma3RowIjEEEEv"
 "_ZNK4Rcpp15SlotProxyPolicyINS_7S4_ImplINS_15PreserveStorageEEEE9SlotProxycvT_INS_6VectorILi13ES2_EEEEv"
 "_ZNK4Rcpp15SlotProxyPolicyINS_7S4_ImplINS_15PreserveStorageEEEE9SlotProxycvT_INS_6VectorILi14ES2_EEEEv"
 "_ZNK4Rcpp17no_such_namespace4whatEv"
 "_ZNK4Rcpp19index_out_of_bounds4whatEv"
 "_ZNK4Rcpp6not_s44whatEv"
 "_ZNK4Rcpp7S4_ImplINS_15PreserveStorageEE2isERKNSt7__cxx1112basic_stringIcSt11char_traitsIcESaIcEEE"
 "_ZNK4Rcpp8internal18generic_name_proxyILi19ENS_15PreserveStorageEE3getEv"
 "_ZNK4Rcpp9exception4whatEv"
 "_ZNK4arma19subview_each_commonINS_3MatIdEELj0EE20incompat_size_stringB5cxx11ERKS2_"
 "_ZNK4arma4BaseIdNS_13subview_elem1IdNS_4mtOpIjNS_3ColIdEENS_14op_find_simpleEEEEEE9index_minEv"
 "_ZNK4arma4BaseIdNS_2OpINS_3MatIdEENS_7op_meanEEEE9index_minEv"
 "_ZNK4arma5SpMatIdE8sync_cscEv"
 "_ZNKSt5ctypeIcE8do_widenEc"
 "_ZNSt6vectorIdSaIdEE17_M_realloc_insertIJRKdEEEvN9__gnu_cxx17__normal_iteratorIPdS1_EEDpOT_"
 "_ZNSt6vectorIdSaIdEE17_M_realloc_insertIJdEEEvN9__gnu_cxx17__normal_iteratorIPdS1_EEDpOT_"
 "_ZNSt6vectorIiSaIiEE17_M_realloc_insertIJRKiEEEvN9__gnu_cxx17__normal_iteratorIPiS1_EEDpOT_"
 "_ZNSt6vectorIiSaIiEE9push_backERKi"
 "_ZNSt7__cxx1112basic_stringIcSt11char_traitsIcESaIcEE12_M_constructIPKcEEvT_S8_St20forward_iterator_tag"
 "_ZNSt7__cxx1112basic_stringIcSt11char_traitsIcESaIcEE12_M_constructIPcEEvT_S7_St20forward_iterator_tag"
 "_ZNSt7__cxx1115basic_stringbufIcSt11char_traitsIcESaIcEED1Ev"
 "_ZNSt8_Rb_treeISt4pairIiiES1_St9_IdentityIS1_ESt4lessIS1_ESaIS1_EE16_M_insert_uniqueIRKS1_EES0_ISt17_Rb_tree_iteratorIS1_EbEOT_"
 "_ZNSt8_Rb_treeISt4pairIiiES1_St9_IdentityIS1_ESt4lessIS1_ESaIS1_EE8_M_eraseEPSt13_Rb_tree_nodeIS1_E"
 "_ZNSt8_Rb_treeIiSt4pairIKiiESt10_Select1stIS2_ESt4lessIiESaIS2_EE24_M_get_insert_unique_posERS1_"
 "_ZNSt8_Rb_treeIiSt4pairIKiiESt10_Select1stIS2_ESt4lessIiESaIS2_EE8_M_eraseEPSt13_Rb_tree_nodeIS2_E"
 "_ZNSt8_Rb_treeIjSt4pairIKjdESt10_Select1stIS2_ESt4lessIjESaIS2_EE14_M_insert_nodeEPSt18_Rb_tree_node_baseSA_PSt13_Rb_tree_nodeIS2_E"
 "_ZNSt8_Rb_treeIjSt4pairIKjdESt10_Select1stIS2_ESt4lessIjESaIS2_EE22_M_emplace_hint_uniqueIJRS1_RKdEEESt17_Rb_tree_iteratorIS2_ESt23_Rb_tree_const_iteratorIS2_EDpOT_"
 "_ZNSt8_Rb_treeIjSt4pairIKjdESt10_Select1stIS2_ESt4lessIjESaIS2_EE24_M_get_insert_unique_posERS1_"
 "_ZNSt8_Rb_treeIjSt4pairIKjdESt10_Select1stIS2_ESt4lessIjESaIS2_EE29_M_get_insert_hint_unique_posESt23_Rb_tree_const_iteratorIS2_ERS1_"
 "_ZNSt8_Rb_treeIjSt4pairIKjdESt10_Select1stIS2_ESt4lessIjESaIS2_EE8_M_eraseEPSt13_Rb_tree_nodeIS2_E"
 "_ZSt13__adjust_heapIN9__gnu_cxx17__normal_iteratorIPN4arma22arma_sort_index_packetIjEESt6vectorIS4_SaIS4_EEEExS4_NS0_5__ops15_Iter_comp_iterINS2_29arma_sort_index_helper_ascendIjEEEEEvT_T0_SG_T1_T2_"
 "_ZSt13__adjust_heapIN9__gnu_cxx17__normal_iteratorIPN4arma22arma_sort_index_packetIjEESt6vectorIS4_SaIS4_EEEExS4_NS0_5__ops15_Iter_comp_iterINS2_30arma_sort_index_helper_descendIjEEEEEvT_T0_SG_T1_T2_"
 "_ZSt13__adjust_heapIPjxjN9__gnu_cxx5__ops15_Iter_comp_iterIN4arma18arma_lt_comparatorIjEEEEEvT_T0_S9_T1_T2_"
 "_ZSt16__insertion_sortIN9__gnu_cxx17__normal_iteratorIPN4arma22arma_sort_index_packetIjEESt6vectorIS4_SaIS4_EEEENS0_5__ops15_Iter_comp_iterINS2_29arma_sort_index_helper_ascendIjEEEEEvT_SF_T0_"
 "_ZSt16__insertion_sortIN9__gnu_cxx17__normal_iteratorIPN4arma22arma_sort_index_packetIjEESt6vectorIS4_SaIS4_EEEENS0_5__ops15_Iter_comp_iterINS2_30arma_sort_index_helper_descendIjEEEEEvT_SF_T0_"
 "_ZSt16__insertion_sortIPjN9__gnu_cxx5__ops15_Iter_comp_iterIN4arma18arma_lt_comparatorIjEEEEEvT_S8_T0_"
 "_ZSt16__introsort_loopIN9__gnu_cxx17__normal_iteratorIPN4arma22arma_sort_index_packetIjEESt6vectorIS4_SaIS4_EEEExNS0_5__ops15_Iter_comp_iterINS2_29arma_sort_index_helper_ascendIjEEEEEvT_SF_T0_T1_"
 "_ZSt16__introsort_loopIN9__gnu_cxx17__normal_iteratorIPN4arma22arma_sort_index_packetIjEESt6vectorIS4_SaIS4_EEEExNS0_5__ops15_Iter_comp_iterINS2_30arma_sort_index_helper_descendIjEEEEEvT_SF_T0_T1_"
 "_ZSt16__introsort_loopIPjxN9__gnu_cxx5__ops15_Iter_comp_iterIN4arma18arma_lt_comparatorIjEEEEEvT_S8_T0_T1_"
 "_ZSt22__final_insertion_sortIN9__gnu_cxx17__normal_iteratorIPN4arma22arma_sort_index_packetIjEESt6vectorIS4_SaIS4_EEEENS0_5__ops15_Iter_comp_iterINS2_29arma_sort_index_helper_ascendIjEEEEEvT_SF_T0_"
 "_ZTCN4Rcpp8RostreamILb0EEE0_So"
 "_ZTCN4Rcpp8RostreamILb1EEE0_So"
 "_ZTIN4Rcpp10RstreambufILb0EEE"
 "_ZTIN4Rcpp10RstreambufILb1EEE"
 "_ZTIN4Rcpp10eval_errorE"
 "_ZTIN4Rcpp12no_such_slotE"
 "_ZTIN4Rcpp12not_a_matrixE"
 "_ZTIN4Rcpp14not_compatibleE"
 "_ZTIN4Rcpp17no_such_namespaceE"
 "_ZTIN4Rcpp19index_out_of_boundsE"
 "_ZTIN4Rcpp6not_s4E"
 "_ZTIN4Rcpp8RostreamILb0EEE"
 "_ZTIN4Rcpp8RostreamILb1EEE"
 "_ZTIN4Rcpp8internal20InterruptedExceptionE"
 "_ZTIN4Rcpp9exceptionE"
 "_ZTISt11logic_error"
 "_ZTISt12out_of_range"
 "_ZTISt13runtime_error"
 "_ZTISt9bad_alloc"
 "_ZTISt9exception"
 "_ZTSN4Rcpp10RstreambufILb0EEE"
 "_ZTSN4Rcpp10RstreambufILb1EEE"
 "_ZTSN4Rcpp10eval_errorE"
 "_ZTSN4Rcpp12no_such_slotE"
 "_ZTSN4Rcpp12not_a_matrixE"
 "_ZTSN4Rcpp14not_compatibleE"
 "_ZTSN4Rcpp17no_such_namespaceE"
 "_ZTSN4Rcpp19index_out_of_boundsE"
 "_ZTSN4Rcpp6not_s4E"
 "_ZTSN4Rcpp8RostreamILb0EEE"
 "_ZTSN4Rcpp8RostreamILb1EEE"
 "_ZTSN4Rcpp8internal20InterruptedExceptionE"
 "_ZTSN4Rcpp9exceptionE"
 "_ZTSSt11logic_error"
 "_ZTSSt12out_of_range"
 "_ZTSSt13runtime_error"
 "_ZTSSt9bad_alloc"
 "_ZTSSt9exception"
 "_ZTTN4Rcpp8RostreamILb0EEE"
 "_ZTTN4Rcpp8RostreamILb1EEE"
 "_ZTVN4Rcpp10RstreambufILb0EEE"
 "_ZTVN4Rcpp10RstreambufILb1EEE"
 "_ZTVN4Rcpp10eval_errorE"
 "_ZTVN4Rcpp12no_such_slotE"
 "_ZTVN4Rcpp12not_a_matrixE"
 "_ZTVN4Rcpp14not_compatibleE"
 "_ZTVN4Rcpp17no_such_namespaceE"
 "_ZTVN4Rcpp19index_out_of_boundsE"
 "_ZTVN4Rcpp6not_s4E"
 "_ZTVN4Rcpp8RostreamILb0EEE"
 "_ZTVN4Rcpp8RostreamILb1EEE"
 "_ZTVN4Rcpp9exceptionE"
 "_ZTv0_n24_N4Rcpp8RostreamILb0EED0Ev"
 "_ZTv0_n24_N4Rcpp8RostreamILb0EED1Ev"
 "_ZTv0_n24_N4Rcpp8RostreamILb1EED0Ev"
 "_ZTv0_n24_N4Rcpp8RostreamILb1EED1Ev"
 "_ZZ7dataptrP7SEXPRECE3fun"
 "_ZZN4Rcpp20Rcpp_precious_removeEP7SEXPRECE3fun"
 "_ZZN4Rcpp22Rcpp_precious_preserveEP7SEXPRECE3fun"
 "_ZZN4arma16arma_cerr_streamIcEERSoPSoE11cerr_stream"
 "_Z13penNuclearCppN4arma3MatIdEEidiiidid"
 "_Z14penNuclearLoopN4arma3MatIdEES1_S1_diid"
 "_ZGVN4arma5DatumIdE3nanE"
 "_ZN4Rcpp10RstreambufILb0EE4syncEv"
 "_ZN4Rcpp10RstreambufILb0EE6xsputnEPKcx"
 "_ZN4Rcpp10RstreambufILb0EE8overflowEi"
 "_ZN4Rcpp10RstreambufILb0EED0Ev"
 "_ZN4Rcpp10RstreambufILb0EED1Ev"
 "_ZN4Rcpp10RstreambufILb1EE4syncEv"
 "_ZN4Rcpp10RstreambufILb1EE6xsputnEPKcx"
 "_ZN4Rcpp10RstreambufILb1EE8overflowEi"
 "_ZN4Rcpp10RstreambufILb1EED0Ev"
 "_ZN4Rcpp10RstreambufILb1EED1Ev"
 "_ZN4Rcpp8RostreamILb0EED0Ev"
 "_ZN4Rcpp8RostreamILb0EED1Ev"
 "_ZN4Rcpp8RostreamILb1EED0Ev"
 "_ZN4Rcpp8RostreamILb1EED1Ev"
 "_ZN4arma10eglue_coreINS_11eglue_minusEE5applyINS_3MatIdEENS_2OpIS5_NS_9op_htransEEENS_4GlueIS5_S8_NS_10glue_timesEEEEEvRT_RKNS_5eGlueIT0_T1_S1_EE"
 "_ZN4arma10eglue_coreINS_11eglue_minusEE5applyINS_3MatIdEENS_5eGlueIS5_NS_4GlueINS_3GenIS5_NS_8gen_onesEEENS_2OpIS5_NS_9op_htransEEENS_10glue_timesEEES1_EENS7_IS5_SD_SE_EEEEvRT_RKNS6_IT0_T1_S1_EE"
 "_ZN4arma10glue_times5applyIdLb0ELb0ELb0ENS_3MatIdEES3_EEvRNS2_IT_EERKT3_RKT4_S4_"
 "_ZN4arma10glue_times5applyIdLb0ELb1ELb0ENS_3MatIdEES3_EEvRNS2_IT_EERKT3_RKT4_S4_"
 "_ZN4arma10glue_times5applyIdLb1ELb0ELb0ENS_3MatIdEES3_EEvRNS2_IT_EERKT3_RKT4_S4_"
 "_ZN4arma10glue_times5applyIdLb1ELb0ELb1ENS_3MatIdEES3_EEvRNS2_IT_EERKT3_RKT4_S4_"
 "_ZN4arma11syrk_helper35inplace_copy_upper_tri_to_lower_triIdEEvRNS_3MatIT_EE"
 "_ZN4arma12unwrap_checkINS_3MatIdEEED1Ev"
 "_ZN4arma13subview_elem2IdNS_4mtOpIjNS1_IjNS_3ColIiEENS_12op_rel_noteqEEENS_14op_find_simpleEEES7_E7extractERNS_3MatIdEERKS8_"
 "_ZN4arma13subview_elem2IdNS_4mtOpIjNS1_IjNS_3ColIiEENS_9op_rel_eqEEENS_14op_find_simpleEEES7_E7extractERNS_3MatIdEERKS8_"
 "_ZN4arma14op_find_simple5applyINS_4mtOpIjNS_3ColIiEENS_12op_rel_noteqEEEEEvRNS_3MatIjEERKNS2_IjT_S0_EE"
 "_ZN4arma14op_find_simple5applyINS_4mtOpIjNS_3ColIiEENS_9op_rel_eqEEEEEvRNS_3MatIjEERKNS2_IjT_S0_EE"
 "_ZN4arma16gemm_emul_tinysqILb0ELb0ELb0EE5applyIdNS_3MatIdEES4_EEvRNS3_IT_EERKT0_RKT1_S5_S5_"
 "_ZN4arma16gemv_emul_tinysqILb0ELb0ELb0EE5applyIdNS_3MatIdEEEEvPT_RKT0_PKS5_S5_S5_"
 "_ZN4arma16gemv_emul_tinysqILb1ELb0ELb0EE5applyIdNS_3MatIdEEEEvPT_RKT0_PKS5_S5_S5_"
 "_ZN4arma16gemv_emul_tinysqILb1ELb1ELb0EE5applyIdNS_3MatIdEEEEvPT_RKT0_PKS5_S5_S5_"
 "_ZN4arma19diagmat_proxy_checkINS_3ColIdEEED1Ev"
 "_ZN4arma27glue_times_redirect2_helperILb0EE5applyINS_2OpINS_3MatIdEENS_9op_htransEEES5_EEvRNS4_INT_9elem_typeEEERKNS_4GlueIS8_T0_NS_10glue_timesEEE"
 "_ZN4arma27glue_times_redirect2_helperILb0EE5applyINS_3GenINS_3MatIdEENS_8gen_onesEEENS_2OpIS5_NS_9op_htransEEEEEvRNS4_INT_9elem_typeEEERKNS_4GlueISB_T0_NS_10glue_timesEEE"
 "_ZN4arma27glue_times_redirect2_helperILb0EE5applyINS_3GenINS_3MatIdEENS_8gen_onesEEES5_EEvRNS4_INT_9elem_typeEEERKNS_4GlueIS8_T0_NS_10glue_timesEEE"
 "_ZN4arma27glue_times_redirect2_helperILb0EE5applyINS_3MatIdEENS_2OpIS4_NS_9op_htransEEEEEvRNS3_INT_9elem_typeEEERKNS_4GlueIS8_T0_NS_10glue_timesEEE"
 "_ZN4arma3ColIdEC1INS_3GenIS1_NS_9gen_zerosEEEEERKNS_4BaseIdT_EE"
 "_ZN4arma3MatIdE10soft_resetEv"
 "_ZN4arma3MatIdE3eyeEv"
 "_ZN4arma3MatIdE5resetEv"
 "_ZN4arma3MatIdE6submatERKNS_4spanES4_"
 "_ZN4arma3MatIdE8set_sizeEj"
 "_ZN4arma3MatIdE9init_coldEv"
 "_ZN4arma3MatIdE9init_warmEjj"
 "_ZN4arma3MatIdE9steal_memERS1_"
 "_ZN4arma3MatIdEC1ERKS1_"
 "_ZN4arma3MatIdEaSERKNS_7subviewIdEE"
 "_ZN4arma3MatIdEclERKNS_4spanEj"
 "_ZN4arma3MatIjE5resetEv"
 "_ZN4arma3MatIjE9init_warmEjj"
 "_ZN4arma5DatumIdE3nanE"
 "_ZN4arma5ProxyINS_4GlueINS_3GenINS_3MatIdEENS_8gen_onesEEES4_NS_10glue_timesEEEED1Ev"
 "_ZN4arma5ProxyINS_4GlueINS_3MatIdEENS_2OpIS3_NS_9op_htransEEENS_10glue_timesEEEED1Ev"
 "_ZN4arma5traceINS_4GlueINS_3MatIdEES3_NS_10glue_timesEEENS_2OpIS3_NS_9op_htransEEEEENS_10enable_if2IXsrNS_5is_cxINT_9elem_typeEEE2noESC_E6resultERKNS1_ISB_T0_S4_EE"
 "_ZN4arma6memory7acquireIiEEPT_j"
 "_ZN4arma6op_det10apply_tinyIdEET_RKNS_3MatIS2_EE"
 "_ZN4arma6op_dot10direct_dotIdEENS_14arma_real_onlyIT_E6resultEjPKS3_S7_"
 "_ZN4arma6op_inv12apply_directINS_3MatIdEEEEbRNS2_INT_9elem_typeEEERKNS_4BaseIS5_S4_EEPKc"
 "_ZN4arma6op_inv18apply_tiny_noaliasIdEEbRNS_3MatIT_EERKS4_"
 "_ZN4arma7op_mean20apply_noalias_unwrapINS_3MatIdEEEEvRNS2_INT_9elem_typeEEERKNS_5ProxyIS4_EEj"
 "_ZN4arma7op_mean5applyINS_3MatIdEEEEvRNS2_INT_9elem_typeEEERKNS_2OpIS4_S0_EE"
 "_ZN4arma7op_norm21vec_norm_2_direct_stdIdEET_RKNS_3MatIS2_EE"
 "_ZN4arma7subviewIdE10inplace_opINS_15op_internal_equENS_2OpINS_3MatIdEENS_10op_reshapeEEEEEvRKNS_4BaseIdT0_EEPKc"
 "_ZN4arma7subviewIdE10inplace_opINS_15op_internal_equENS_3MatIdEEEEvRKNS_4BaseIdT0_EEPKc"
 "_ZN4arma7subviewIdE10inplace_opINS_15op_internal_equENS_3eOpINS_3MatIdEENS_19eop_scalar_div_postEEEEEvRKNS_4BaseIdT0_EEPKc"
 "_ZN4arma7subviewIdE7extractERNS_3MatIdEERKS1_"
 "_ZN4arma8arrayops10copy_smallIdEEvPT_PKS2_j"
 "_ZN4arma8arrayops10copy_smallIjEEvPT_PKS2_j"
 "_ZN4arma8arrayops17inplace_set_smallIdEEvPT_S2_j"
 "_ZN4arma8eop_coreINS_19eop_scalar_div_postEE5applyINS_3MatIdEENS_4GlueINS_2OpIS5_NS_9op_htransEEES5_NS_10glue_timesEEEEEvRT_RKNS_3eOpIT0_S1_EE"
 "_ZN4arma9as_scalarINS_2OpINS1_INS_3eOpINS_3MatIdEENS_7eop_absEEENS_6op_sumEEENS_6op_maxEEEEENT_9elem_typeERKNS_4BaseISC_SB_EE"
 "_ZN4arma9op_stddev5applyINS_3MatIdEEEEvRNS2_INT_8pod_typeEEERKNS_4mtOpIS5_S4_S0_EE"
 "_ZN4arma9op_strans17apply_mat_inplaceIdEEvRNS_3MatIT_EE"
 "_ZN4arma9op_strans17apply_mat_noaliasIdNS_3MatIdEEEEvRNS2_IT_EERKT0_"
 "_ZN4arma9op_strans24apply_mat_noalias_tinysqIdNS_3MatIdEEEEvRNS2_IT_EERKT0_"
 "_ZN4arma9op_trimat12apply_unwrapIdEEvRNS_3MatIT_EERKS4_b"
 "_ZN4arma9syrk_emulILb1ELb0ELb0EE5applyIdNS_3MatIdEEEEvRNS3_IT_EERKT0_S5_S5_"
 "_ZTCN4Rcpp8RostreamILb0EEE0_So"
 "_ZTCN4Rcpp8RostreamILb1EEE0_So"
 "_ZTIN4Rcpp10RstreambufILb0EEE"
 "_ZTIN4Rcpp10RstreambufILb1EEE"
 "_ZTIN4Rcpp8RostreamILb0EEE"
 "_ZTIN4Rcpp8RostreamILb1EEE"
 "_ZTISt11logic_error"
 "_ZTISt12out_of_range"
 "_ZTISt13runtime_error"
 "_ZTISt9bad_alloc"
 "_ZTISt9exception"
 "_ZTSN4Rcpp10RstreambufILb0EEE"
 "_ZTSN4Rcpp10RstreambufILb1EEE"
 "_ZTSN4Rcpp8RostreamILb0EEE"
 "_ZTSN4Rcpp8RostreamILb1EEE"
 "_ZTSSt11logic_error"
 "_ZTSSt12out_of_range"
 "_ZTSSt13runtime_error"
 "_ZTSSt9bad_alloc"
 "_ZTSSt9exception"
 "_ZTTN4Rcpp8RostreamILb0EEE"
 "_ZTTN4Rcpp8RostreamILb1EEE"
 "_ZTVN4Rcpp10RstreambufILb0EEE"
 "_ZTVN4Rcpp10RstreambufILb1EEE"
 "_ZTVN4Rcpp8RostreamILb0EEE"
 "_ZTVN4Rcpp8RostreamILb1EEE"
 "_ZTv0_n24_N4Rcpp8RostreamILb0EED0Ev"
 "_ZTv0_n24_N4Rcpp8RostreamILb0EED1Ev"
 "_ZTv0_n24_N4Rcpp8RostreamILb1EED0Ev"
 "_ZTv0_n24_N4Rcpp8RostreamILb1EED1Ev"
 "_ZZN4arma16arma_cerr_streamIcEERSoPSoE11cerr_stream"
 "_Z5accu2RN4arma3MatIdEE"
 "_Z8penPiCppN4arma3MatIdEEidiiidbi"
 "_Z9penPiLoopN4arma3MatIdEES1_S1_diib"
 "_ZGVN4arma5DatumIdE3infE"
 "_ZGVN4arma5DatumIdE3nanE"
 "_ZN4Rcpp10RstreambufILb0EE4syncEv"
 "_ZN4Rcpp10RstreambufILb0EE6xsputnEPKcx"
 "_ZN4Rcpp10RstreambufILb0EE8overflowEi"
 "_ZN4Rcpp10RstreambufILb0EED0Ev"
 "_ZN4Rcpp10RstreambufILb0EED1Ev"
 "_ZN4Rcpp10RstreambufILb1EE4syncEv"
 "_ZN4Rcpp10RstreambufILb1EE6xsputnEPKcx"
 "_ZN4Rcpp10RstreambufILb1EE8overflowEi"
 "_ZN4Rcpp10RstreambufILb1EED0Ev"
 "_ZN4Rcpp10RstreambufILb1EED1Ev"
 "_ZN4Rcpp8RostreamILb0EED0Ev"
 "_ZN4Rcpp8RostreamILb0EED1Ev"
 "_ZN4Rcpp8RostreamILb1EED0Ev"
 "_ZN4Rcpp8RostreamILb1EED1Ev"
 "_ZN4arma10eglue_coreINS_10eglue_plusEE5applyINS_3MatIdEES5_NS_4GlueINS_2OpIS5_NS_10op_htrans2EEENS_5eGlueIS5_NS6_IS5_S5_NS_10glue_timesEEENS_11eglue_minusEEESB_EEEEvRT_RKNSA_IT0_T1_S1_EE"
 "_ZN4arma10eglue_coreINS_11eglue_minusEE5applyINS_3MatIdEENS_11subview_rowIdEES7_EEvRT_RKNS_5eGlueIT0_T1_S1_EE"
 "_ZN4arma10eglue_coreINS_11eglue_minusEE5applyINS_3MatIdEENS_5eGlueIS5_NS_4GlueINS_3GenIS5_NS_8gen_onesEEENS_2OpIS5_NS_9op_htransEEENS_10glue_timesEEES1_EENS7_IS5_SD_SE_EEEEvRT_RKNS6_IT0_T1_S1_EE"
 "_ZN4arma10eglue_coreINS_11eglue_schurEE5applyINS_3MatIdEES5_S5_EEvRT_RKNS_5eGlueIT0_T1_S1_EE"
 "_ZN4arma10glue_times5applyIdLb0ELb0ELb0ENS_3MatIdEES3_EEvRNS2_IT_EERKT3_RKT4_S4_"
 "_ZN4arma10glue_times5applyIdLb0ELb1ELb0ENS_3MatIdEES3_EEvRNS2_IT_EERKT3_RKT4_S4_"
 "_ZN4arma10glue_times5applyIdLb0ELb1ELb1ENS_3ColIdEES3_EEvRNS_3MatIT_EERKT3_RKT4_S5_"
 "_ZN4arma10glue_times5applyIdLb1ELb0ELb0ENS_3MatIdEES3_EEvRNS2_IT_EERKT3_RKT4_S4_"
 "_ZN4arma10glue_times5applyIdLb1ELb0ELb1ELb0ELb0ENS_3MatIdEES3_S3_S3_EEvRNS2_IT_EERKT5_RKT6_RKT7_RKT8_S4_"
 "_ZN4arma10glue_times5applyIdLb1ELb0ELb1ENS_3MatIdEES3_EEvRNS2_IT_EERKT3_RKT4_S4_"
 "_ZN4arma11syrk_helper35inplace_copy_upper_tri_to_lower_triIdEEvRNS_3MatIT_EE"
 "_ZN4arma13subview_elem1IdNS_4mtOpIjNS_3MatIdEENS_14op_find_finiteEEEE7extractERS3_RKS6_"
 "_ZN4arma13subview_elem2IdNS_4mtOpIjNS1_IjNS_3ColIiEENS_12op_rel_noteqEEENS_14op_find_simpleEEES7_E7extractERNS_3MatIdEERKS8_"
 "_ZN4arma13subview_elem2IdNS_4mtOpIjNS1_IjNS_3ColIiEENS_9op_rel_eqEEENS_14op_find_simpleEEES7_E7extractERNS_3MatIdEERKS8_"
 "_ZN4arma14op_find_simple5applyINS_4mtOpIjNS_3ColIiEENS_12op_rel_noteqEEEEEvRNS_3MatIjEERKNS2_IjT_S0_EE"
 "_ZN4arma14op_find_simple5applyINS_4mtOpIjNS_3ColIiEENS_9op_rel_eqEEEEEvRNS_3MatIjEERKNS2_IjT_S0_EE"
 "_ZN4arma15gemm_emul_largeILb0ELb0ELb0ELb0EE5applyIdNS_3MatIdEES4_EEvRNS3_IT_EERKT0_RKT1_S5_S5_"
 "_ZN4arma15glue_times_diag5applyINS_5eGlueINS_3MatIdEENS_4GlueINS_3GenIS4_NS_8gen_onesEEES4_NS_10glue_timesEEENS_11eglue_minusEEENS_2OpINS_3eOpIS4_NS_18eop_scalar_div_preEEENS_10op_diagmatEEEEEvRNS3_INT_9elem_typeEEERKNS5_ISJ_T0_S0_EE"
 "_ZN4arma16gemm_emul_tinysqILb0ELb0ELb0EE5applyIdNS_3MatIdEES4_EEvRNS3_IT_EERKT0_RKT1_S5_S5_"
 "_ZN4arma16gemv_emul_tinysqILb0ELb0ELb0EE5applyIdNS_3MatIdEEEEvPT_RKT0_PKS5_S5_S5_"
 "_ZN4arma16gemv_emul_tinysqILb0ELb1ELb0EE5applyIdNS_3ColIdEEEEvPT_RKT0_PKS5_S5_S5_"
 "_ZN4arma16gemv_emul_tinysqILb1ELb0ELb0EE5applyIdNS_3MatIdEEEEvPT_RKT0_PKS5_S5_S5_"
 "_ZN4arma16gemv_emul_tinysqILb1ELb1ELb0EE5applyIdNS_3MatIdEEEEvPT_RKT0_PKS5_S5_S5_"
 "_ZN4arma19glue_times_redirectILj4EE5applyINS_2OpINS_3MatIdEENS_9op_htransEEENS_5eGlueIS5_NS_4GlueIS5_S5_NS_10glue_timesEEENS_11eglue_minusEEENS3_ISD_S6_EES5_EEvRNS4_INT_9elem_typeEEERKNS9_INS9_INS9_ISF_T0_SA_EET1_SA_EET2_SA_EE"
 "_ZN4arma19glue_times_redirectILj6EE5applyINS_4GlueINS3_INS3_INS3_INS_2OpINS_5eGlueINS_3MatIdEENS3_IS7_S7_NS_10glue_timesEEENS_11eglue_minusEEENS_9op_htransEEES7_S8_EENS4_IS7_SC_EES8_EES7_S8_EESF_S8_EESB_EEvRNS6_INT_9elem_typeEEERKNS3_ISJ_T0_S8_EE"
 "_ZN4arma27glue_times_redirect2_helperILb0EE5applyINS_2OpINS_3MatIdEENS_10op_htrans2EEENS_5eGlueIS5_NS_4GlueIS5_S5_NS_10glue_timesEEENS_11eglue_minusEEEEEvRNS4_INT_9elem_typeEEERKNS9_ISE_T0_SA_EE"
 "_ZN4arma27glue_times_redirect2_helperILb0EE5applyINS_2OpINS_3MatIdEENS_9op_htransEEENS_5eGlueIS5_NS_4GlueIS5_S5_NS_10glue_timesEEENS_11eglue_minusEEEEEvRNS4_INT_9elem_typeEEERKNS9_ISE_T0_SA_EE"
 "_ZN4arma27glue_times_redirect2_helperILb0EE5applyINS_2OpINS_3MatIdEENS_9op_htransEEES5_EEvRNS4_INT_9elem_typeEEERKNS_4GlueIS8_T0_NS_10glue_timesEEE"
 "_ZN4arma27glue_times_redirect2_helperILb0EE5applyINS_3GenINS_3MatIdEENS_8gen_onesEEES5_EEvRNS4_INT_9elem_typeEEERKNS_4GlueIS8_T0_NS_10glue_timesEEE"
 "_ZN4arma27glue_times_redirect2_helperILb0EE5applyINS_3MatIdEENS_2OpIS4_NS_9op_htransEEEEEvRNS3_INT_9elem_typeEEERKNS_4GlueIS8_T0_NS_10glue_timesEEE"
 "_ZN4arma27glue_times_redirect2_helperILb0EE5applyINS_3MatIdEES4_EEvRNS3_INT_9elem_typeEEERKNS_4GlueIS5_T0_NS_10glue_timesEEE"
 "_ZN4arma27glue_times_redirect3_helperILb1EE5applyINS_2OpINS_4GlueINS3_INS_3MatIdEENS_9op_htransEEES6_NS_10glue_timesEEENS_6op_invEEES8_S6_EEvRNS5_INT_9elem_typeEEERKNS4_INS4_ISD_T0_S9_EET1_S9_EE"
 "_ZN4arma3ColIdEC1INS_3GenIS1_NS_9gen_zerosEEEEERKNS_4BaseIdT_EE"
 "_ZN4arma3ColIdEC1INS_8diagviewIdEEEERKNS_4BaseIdT_EE"
 "_ZN4arma3MatIdE10soft_resetEv"
 "_ZN4arma3MatIdE3eyeEv"
 "_ZN4arma3MatIdE5resetEv"
 "_ZN4arma3MatIdE5zerosEjj"
 "_ZN4arma3MatIdE6submatERKNS_4spanES4_"
 "_ZN4arma3MatIdE8set_sizeEj"
 "_ZN4arma3MatIdE9init_coldEv"
 "_ZN4arma3MatIdE9init_warmEjj"
 "_ZN4arma3MatIdE9steal_memERS1_"
 "_ZN4arma3MatIdEC1ERKS1_"
 "_ZN4arma3MatIdEC1IS1_NS_4GlueIS1_S1_NS_10glue_timesEEENS_11eglue_minusEEERKNS_5eGlueIT_T0_T1_EE"
 "_ZN4arma3MatIdEaSERKNS_7subviewIdEE"
 "_ZN4arma3MatIdEclERKNS_4spanEj"
 "_ZN4arma3MatIjE13steal_mem_colERS1_j"
 "_ZN4arma3MatIjE5resetEv"
 "_ZN4arma3MatIjE9init_warmEjj"
 "_ZN4arma5DatumIdE3infE"
 "_ZN4arma5DatumIdE3nanE"
 "_ZN4arma5ProxyINS_2OpINS_3MatIdEENS_9op_htransEEEED1Ev"
 "_ZN4arma5ProxyINS_4GlueINS_3GenINS_3MatIdEENS_8gen_onesEEES4_NS_10glue_timesEEEED1Ev"
 "_ZN4arma5ProxyINS_4GlueINS_3MatIdEENS_2OpIS3_NS_9op_htransEEENS_10glue_timesEEEED1Ev"
 "_ZN4arma5ProxyINS_4GlueINS_3MatIdEES3_NS_10glue_timesEEEED1Ev"
 "_ZN4arma5traceINS_4GlueINS_3MatIdEES3_NS_10glue_timesEEENS_2OpIS3_NS_9op_htransEEEEENS_10enable_if2IXsrNS_5is_cxINT_9elem_typeEEE2noESC_E6resultERKNS1_ISB_T0_S4_EE"
 "_ZN4arma6auxlib17solve_square_tinyINS_3MatIdEEEEbRNS2_INT_9elem_typeEEERKS6_RKNS_4BaseIS5_S4_EE"
 "_ZN4arma6auxlib3svdIdEEbRNS_3MatIT_EERNS_3ColIS3_EES5_S5_"
 "_ZN4arma6auxlib6svd_dcIdEEbRNS_3MatIT_EERNS_3ColIS3_EES5_S5_"
 "_ZN4arma6memory7acquireIiEEPT_j"
 "_ZN4arma6op_det10apply_tinyIdEET_RKNS_3MatIS2_EE"
 "_ZN4arma6op_dot10direct_dotIdEENS_14arma_real_onlyIT_E6resultEjPKS3_S7_"
 "_ZN4arma6op_inv12apply_directINS_3MatIdEEEEbRNS2_INT_9elem_typeEEERKNS_4BaseIS5_S4_EEPKc"
 "_ZN4arma6op_inv18apply_tiny_noaliasIdEEbRNS_3MatIT_EERKS4_"
 "_ZN4arma7op_mean20apply_noalias_unwrapINS_3MatIdEEEEvRNS2_INT_9elem_typeEEERKNS_5ProxyIS4_EEj"
 "_ZN4arma7op_mean5applyINS_3MatIdEEEEvRNS2_INT_9elem_typeEEERKNS_2OpIS4_S0_EE"
 "_ZN4arma7op_sort5applyINS_5eGlueINS_3eOpINS_3MatIdEENS_16eop_scalar_timesEEENS_4GlueINS_2OpIS5_NS_9op_htransEEENS2_IS5_NS8_IS5_S5_NS_10glue_timesEEENS_11eglue_minusEEESC_EENS_9eglue_divEEEEEvRNS4_INT_9elem_typeEEERKNS9_ISJ_S0_EE"
 "_ZN4arma7subviewIdE10inplace_opINS_15op_internal_equENS_2OpINS_3MatIdEENS_10op_reshapeEEEEEvRKNS_4BaseIdT0_EEPKc"
 "_ZN4arma7subviewIdE10inplace_opINS_15op_internal_equENS_3MatIdEEEEvRKNS_4BaseIdT0_EEPKc"
 "_ZN4arma7subviewIdE10inplace_opINS_15op_internal_equENS_3eOpINS_3MatIdEENS_19eop_scalar_div_postEEEEEvRKNS_4BaseIdT0_EEPKc"
 "_ZN4arma7subviewIdE7extractERNS_3MatIdEERKS1_"
 "_ZN4arma8arrayops10copy_smallIdEEvPT_PKS2_j"
 "_ZN4arma8arrayops10copy_smallIjEEvPT_PKS2_j"
 "_ZN4arma8arrayops17inplace_set_smallIdEEvPT_S2_j"
 "_ZN4arma8eop_coreINS_8eop_signEE5applyINS_3MatIdEENS_5eGlueINS_3eOpINS7_INS_4GlueINS_2OpIS5_NS_9op_htransEEENS6_IS5_NS8_IS5_S5_NS_10glue_timesEEENS_11eglue_minusEEESC_EENS_16eop_scalar_timesEEENS_19eop_scalar_div_postEEESB_NS_10eglue_plusEEEEEvRT_RKNS7_IT0_S1_EE"
 "_ZN4arma9op_stddev5applyINS_3MatIdEEEEvRNS2_INT_8pod_typeEEERKNS_4mtOpIS5_S4_S0_EE"
 "_ZN4arma9op_strans17apply_mat_inplaceIdEEvRNS_3MatIT_EE"
 "_ZN4arma9op_strans17apply_mat_noaliasIdNS_3MatIdEEEEvRNS2_IT_EERKT0_"
 "_ZN4arma9op_strans24apply_mat_noalias_tinysqIdNS_3ColIdEEEEvRNS_3MatIT_EERKT0_"
 "_ZN4arma9op_strans24apply_mat_noalias_tinysqIdNS_3MatIdEEEEvRNS2_IT_EERKT0_"
 "_ZN4arma9op_trimat12apply_unwrapIdEEvRNS_3MatIT_EERKS4_b"
 "_ZN4arma9syrk_emulILb1ELb0ELb0EE5applyIdNS_3MatIdEEEEvRNS3_IT_EERKT0_S5_S5_"
 "_ZN4arma9syrk_emulILb1ELb1ELb0EE5applyIdNS_3MatIdEEEEvRNS3_IT_EERKT0_S5_S5_"
 "_ZSt13__adjust_heapIPdxdN9__gnu_cxx5__ops15_Iter_comp_iterIN4arma18arma_gt_comparatorIdEEEEEvT_T0_S9_T1_T2_"
 "_ZSt13__adjust_heapIPdxdN9__gnu_cxx5__ops15_Iter_comp_iterIN4arma18arma_lt_comparatorIdEEEEEvT_T0_S9_T1_T2_"
 "_ZSt16__insertion_sortIPdN9__gnu_cxx5__ops15_Iter_comp_iterIN4arma18arma_gt_comparatorIdEEEEEvT_S8_T0_"
 "_ZSt16__insertion_sortIPdN9__gnu_cxx5__ops15_Iter_comp_iterIN4arma18arma_lt_comparatorIdEEEEEvT_S8_T0_"
 "_ZSt16__introsort_loopIPdxN9__gnu_cxx5__ops15_Iter_comp_iterIN4arma18arma_gt_comparatorIdEEEEEvT_S8_T0_T1_"
 "_ZSt16__introsort_loopIPdxN9__gnu_cxx5__ops15_Iter_comp_iterIN4arma18arma_lt_comparatorIdEEEEEvT_S8_T0_T1_"
 "_ZTCN4Rcpp8RostreamILb0EEE0_So"
 "_ZTCN4Rcpp8RostreamILb1EEE0_So"
 "_ZTIN4Rcpp10RstreambufILb0EEE"
 "_ZTIN4Rcpp10RstreambufILb1EEE"
 "_ZTIN4Rcpp8RostreamILb0EEE"
 "_ZTIN4Rcpp8RostreamILb1EEE"
 "_ZTISt11logic_error"
 "_ZTISt12out_of_range"
 "_ZTISt13runtime_error"
 "_ZTISt9bad_alloc"
 "_ZTISt9exception"
 "_ZTSN4Rcpp10RstreambufILb0EEE"
 "_ZTSN4Rcpp10RstreambufILb1EEE"
 "_ZTSN4Rcpp8RostreamILb0EEE"
 "_ZTSN4Rcpp8RostreamILb1EEE"
 "_ZTSSt11logic_error"
 "_ZTSSt12out_of_range"
 "_ZTSSt13runtime_error"
 "_ZTSSt9bad_alloc"
 "_ZTSSt9exception"
 "_ZTTN4Rcpp8RostreamILb0EEE"
 "_ZTTN4Rcpp8RostreamILb1EEE"
 "_ZTVN4Rcpp10RstreambufILb0EEE"
 "_ZTVN4Rcpp10RstreambufILb1EEE"
 "_ZTVN4Rcpp8RostreamILb0EEE"
 "_ZTVN4Rcpp8RostreamILb1EEE"
 "_ZTv0_n24_N4Rcpp8RostreamILb0EED0Ev"
 "_ZTv0_n24_N4Rcpp8RostreamILb0EED1Ev"
 "_ZTv0_n24_N4Rcpp8RostreamILb1EED0Ev"
 "_ZTv0_n24_N4Rcpp8RostreamILb1EED1Ev"
 "_ZZN4arma16arma_cerr_streamIcEERSoPSoE11cerr_stream"
 "_Z3sgni"
 "_Z5phaseN4arma3ColIdEE"
 "_Z9amplitudeN4arma3ColIdEE"
 "_Z9polarToXYN4arma3ColIdEES1_"
 "_ZGVN4arma5DatumIdE3nanE"
 "_ZN4Rcpp10RstreambufILb0EE4syncEv"
 "_ZN4Rcpp10RstreambufILb0EE6xsputnEPKcx"
 "_ZN4Rcpp10RstreambufILb0EE8overflowEi"
 "_ZN4Rcpp10RstreambufILb0EED0Ev"
 "_ZN4Rcpp10RstreambufILb0EED1Ev"
 "_ZN4Rcpp10RstreambufILb1EE4syncEv"
 "_ZN4Rcpp10RstreambufILb1EE6xsputnEPKcx"
 "_ZN4Rcpp10RstreambufILb1EE8overflowEi"
 "_ZN4Rcpp10RstreambufILb1EED0Ev"
 "_ZN4Rcpp10RstreambufILb1EED1Ev"
 "_ZN4Rcpp8RostreamILb0EED0Ev"
 "_ZN4Rcpp8RostreamILb0EED1Ev"
 "_ZN4Rcpp8RostreamILb1EED0Ev"
 "_ZN4Rcpp8RostreamILb1EED1Ev"
 "_ZN4arma5DatumIdE3nanE"
 "_ZTCN4Rcpp8RostreamILb0EEE0_So"
 "_ZTCN4Rcpp8RostreamILb1EEE0_So"
 "_ZTIN4Rcpp10RstreambufILb0EEE"
 "_ZTIN4Rcpp10RstreambufILb1EEE"
 "_ZTIN4Rcpp8RostreamILb0EEE"
 "_ZTIN4Rcpp8RostreamILb1EEE"
 "_ZTISt11logic_error"
 "_ZTISt12out_of_range"
 "_ZTISt9bad_alloc"
 "_ZTISt9exception"
 "_ZTSN4Rcpp10RstreambufILb0EEE"
 "_ZTSN4Rcpp10RstreambufILb1EEE"
 "_ZTSN4Rcpp8RostreamILb0EEE"
 "_ZTSN4Rcpp8RostreamILb1EEE"
 "_ZTSSt11logic_error"
 "_ZTSSt12out_of_range"
 "_ZTSSt9bad_alloc"
 "_ZTSSt9exception"
 "_ZTTN4Rcpp8RostreamILb0EEE"
 "_ZTTN4Rcpp8RostreamILb1EEE"
 "_ZTVN4Rcpp10RstreambufILb0EEE"
 "_ZTVN4Rcpp10RstreambufILb1EEE"
 "_ZTVN4Rcpp8RostreamILb0EEE"
 "_ZTVN4Rcpp8RostreamILb1EEE"
 "_ZTv0_n24_N4Rcpp8RostreamILb0EED0Ev"
 "_ZTv0_n24_N4Rcpp8RostreamILb0EED1Ev"
 "_ZTv0_n24_N4Rcpp8RostreamILb1EED0Ev"
 "_ZTv0_n24_N4Rcpp8RostreamILb1EED1Ev"
 "_ZZN4arma16arma_cerr_streamIcEERSoPSoE11cerr_stream"
